(lp0
(lp1
(dp2
S'type'
p3
S'correct_col'
p4
sS'pos'
p5
I-1
sS'result'
p6
S'2'
p7
sa(dp8
g3
S'N-N=N'
p9
sg5
I-2
sg6
S'4'
p10
sa(dp11
g3
g4
sg5
I-2
sg6
S'0'
p12
sa(dp13
g3
S'incomplete'
p14
sg5
I-1
sg6
S'02'
p15
sa(dp16
g3
S'blank_correct_col'
p17
sg5
I-3
sg6
g7
sa(dp18
g3
g14
sg5
I-2
sg6
S'60'
p19
sa(dp20
g3
S'copy'
p21
sg5
I-3
sg6
S'6'
p22
saa(lp23
(dp24
g3
g4
sg5
I-1
sg6
g12
sa(dp25
g3
g9
sg5
I-1
sg6
S'5'
p26
sa(dp27
g3
g14
sg5
I-1
sg6
S'80'
p28
sa(dp29
g3
g4
sg5
I-2
sg6
S'8'
p30
sa(dp31
g3
S'N-0=0'
p32
sg5
I-2
sg6
g12
sa(dp33
g3
g4
sg5
I-3
sg6
g22
sa(dp34
g3
g14
sg5
I-2
sg6
S'68'
p35
saa(lp36
(dp37
g3
S'pt-gd=0'
p38
sg5
I-1
sg6
g12
sa(dp39
g3
S'gd-pt'
p40
sg5
I-1
sg6
S'1'
p41
sa(dp42
g3
S'pt-gd=pt'
p43
sg5
I-1
sg6
S'3'
p44
sa(dp45
g3
S'pt-gd=gd'
p46
sg5
I-1
sg6
g10
sa(dp47
g3
g4
sg5
I-2
sg6
g10
saa(lp48
(dp49
g3
g4
sg5
I-1
sg6
g7
sa(dp50
g3
S'blank_gd-ptZ'
p51
sg5
I-2
sg6
g44
sa(dp52
g3
S'blank_pt-gd=gdZ'
p53
sg5
I-2
sg6
g44
sa(dp54
g3
S'blank_0-N=N'
p55
sg5
I-2
sg6
g44
sa(dp56
g3
g21
sg5
I-2
sg6
g12
sa(dp57
g3
g14
sg5
I-1
sg6
S'02'
p58
sa(dp59
g3
g21
sg5
I-3
sg6
g44
sa(dp60
g3
S'blank_correct_col'
p61
sg5
I-3
sg6
g12
sa(dp62
g3
S'blank_correct_col'
p63
sg5
I-4
sg6
g26
sa(dp64
g3
g21
sg5
I-4
sg6
g30
saa(lp65
(dp66
g3
S'pt-gd=0Z'
p67
sg5
I-1
sg6
g12
sa(dp68
g3
S'pt-gd=ptZ'
p69
sg5
I-1
sg6
g12
sa(dp70
g3
S'0-N=0'
p71
sg5
I-1
sg6
g12
sa(dp72
g3
S'gd-ptZ'
p73
sg5
I-1
sg6
g44
sa(dp74
g3
S'pt-gd=gdZ'
p75
sg5
I-1
sg6
g44
sa(dp76
g3
S'0-N=N'
p77
sg5
I-1
sg6
g44
sa(dp78
g3
g4
sg5
I-2
sg6
g44
saa(lp79
(dp80
g3
g38
sg5
I-1
sg6
g12
sa(dp81
g3
g40
sg5
I-1
sg6
g41
sa(dp82
g3
g43
sg5
I-1
sg6
g7
sa(dp83
g3
g46
sg5
I-1
sg6
g44
sa(dp84
g3
S'blank_correct_col'
p85
sg5
I-2
sg6
g44
sa(dp86
g3
g14
sg5
I-1
sg6
S'59'
p87
sa(dp88
g3
g21
sg5
I-2
sg6
g22
sa(dp89
g3
S'blank_correct_col'
p90
sg5
I-3
sg6
g7
sa(dp91
g3
g21
sg5
I-3
sg6
g26
saa(lp92
(dp93
g3
g38
sg5
I-1
sg6
g12
sa(dp94
g3
g43
sg5
I-1
sg6
g7
sa(dp95
g3
g40
sg5
I-1
sg6
g10
sa(dp96
g3
g46
sg5
I-1
sg6
g22
sa(dp97
g3
g4
sg5
I-2
sg6
g41
sa(dp98
g3
g14
sg5
I-1
sg6
S'06'
p99
sa(dp100
g3
g4
sg5
I-3
sg6
g22
sa(dp101
g3
g14
sg5
I-2
sg6
S'61'
p102
saa(lp103
(dp104
g3
g32
sg5
I-1
sg6
g12
sa(dp105
g3
g4
sg5
I-1
sg6
g22
sa(dp106
g3
g73
sg5
I-2
sg6
S'7'
p107
sa(dp108
g3
g75
sg5
I-2
sg6
g107
sa(dp109
g3
g77
sg5
I-2
sg6
g107
sa(dp110
g3
g67
sg5
I-2
sg6
g12
sa(dp111
g3
g69
sg5
I-2
sg6
g12
sa(dp112
g3
g71
sg5
I-2
sg6
g12
sa(dp113
g3
g21
sg5
I-3
sg6
g41
sa(dp114
g3
S'blank_gd-pt'
p115
sg5
I-3
sg6
g22
sa(dp116
g3
S'blank_pt-gd=gd'
p117
sg5
I-3
sg6
g107
saa(lp118
(dp119
g3
g38
sg5
I-1
sg6
g12
sa(dp120
g3
g40
sg5
I-1
sg6
g7
sa(dp121
g3
g43
sg5
I-1
sg6
g22
sa(dp122
g3
g46
sg5
I-1
sg6
g30
sa(dp123
g3
g43
sg5
I-2
sg6
g41
sa(dp124
g3
g40
sg5
I-2
sg6
g30
sa(dp125
g3
g46
sg5
I-2
sg6
S'9'
p126
sa(dp127
g3
g38
sg5
I-2
sg6
g12
sa(dp128
g3
g14
sg5
I-2
sg6
S'12'
p129
sa(dp130
g3
g4
sg5
I-3
sg6
g7
saa(lp131
(dp132
g3
g38
sg5
I-1
sg6
g12
sa(dp133
g3
g40
sg5
I-1
sg6
g44
sa(dp134
g3
g43
sg5
I-1
sg6
g10
sa(dp135
g3
g46
sg5
I-1
sg6
g107
sa(dp136
g3
g40
sg5
I-2
sg6
g7
sa(dp137
g3
g43
sg5
I-2
sg6
g22
sa(dp138
g3
g46
sg5
I-2
sg6
g30
sa(dp139
g3
g38
sg5
I-2
sg6
g12
sa(dp140
g3
g40
sg5
I-3
sg6
g44
sa(dp141
g3
g43
sg5
I-3
sg6
g26
sa(dp142
g3
g46
sg5
I-3
sg6
g30
sa(dp143
g3
g38
sg5
I-3
sg6
g12
sa(dp144
g3
g21
sg5
I-4
sg6
g41
sa(dp145
g3
S'blank_gd-pt'
p146
sg5
I-4
sg6
g107
sa(dp147
g3
S'blank_pt-gd=gd'
p148
sg5
I-4
sg6
g30
saa(lp149
(dp150
g3
g38
sg5
I-1
sg6
g12
sa(dp151
g3
g43
sg5
I-1
sg6
g41
sa(dp152
g3
g40
sg5
I-1
sg6
g22
sa(dp153
g3
g46
sg5
I-1
sg6
g107
sa(dp154
g3
g9
sg5
I-2
sg6
g126
sa(dp155
g3
g4
sg5
I-2
sg6
g12
sa(dp156
g3
g40
sg5
I-3
sg6
g41
sa(dp157
g3
g43
sg5
I-3
sg6
g26
sa(dp158
g3
g46
sg5
I-3
sg6
g22
sa(dp159
g3
g38
sg5
I-3
sg6
g12
sa(dp160
g3
g14
sg5
I-3
sg6
S'39'
p161
sa(dp162
g3
g4
sg5
I-4
sg6
g10
saa(lp163
(dp164
g3
g38
sg5
I-1
sg6
g12
sa(dp165
g3
g43
sg5
I-1
sg6
g41
sa(dp166
g3
g40
sg5
I-1
sg6
g44
sa(dp167
g3
g46
sg5
I-1
sg6
g10
sa(dp168
g3
g9
sg5
I-2
sg6
g41
sa(dp169
g3
g14
sg5
I-2
sg6
S'10'
p170
sa(dp171
g3
g4
sg5
I-2
sg6
g12
sa(dp172
g3
g4
sg5
I-3
sg6
g41
saa(lp173
(dp174
g3
g38
sg5
I-1
sg6
g12
sa(dp175
g3
g40
sg5
I-1
sg6
g7
sa(dp176
g3
g43
sg5
I-1
sg6
g44
sa(dp177
g3
g46
sg5
I-1
sg6
g26
sa(dp178
g3
g9
sg5
I-2
sg6
g41
sa(dp179
g3
g4
sg5
I-2
sg6
g12
sa(dp180
g3
g14
sg5
I-2
sg6
S'60'
p181
sa(dp182
g3
g4
sg5
I-3
sg6
g22
sa(dp183
g3
g21
sg5
I-4
sg6
g41
sa(dp184
g3
g14
sg5
I-3
sg6
S'16'
p185
sa(dp186
g3
S'blank_pt-gd=gd'
p187
sg5
I-4
sg6
g7
saa(lp188
(dp189
g3
g38
sg5
I-1
sg6
g12
sa(dp190
g3
g43
sg5
I-1
sg6
g7
sa(dp191
g3
g40
sg5
I-1
sg6
g107
sa(dp192
g3
g46
sg5
I-1
sg6
g126
sa(dp193
g3
g73
sg5
I-2
sg6
g44
sa(dp194
g3
g75
sg5
I-2
sg6
g44
sa(dp195
g3
g77
sg5
I-2
sg6
g44
sa(dp196
g3
g67
sg5
I-2
sg6
g12
sa(dp197
g3
g69
sg5
I-2
sg6
g12
sa(dp198
g3
g71
sg5
I-2
sg6
g12
sa(dp199
g3
g21
sg5
I-3
sg6
g41
sa(dp200
g3
S'blank_gd-pt'
p201
sg5
I-3
sg6
g7
sa(dp202
g3
S'blank_pt-gd=gd'
p203
sg5
I-3
sg6
g44
saa(lp204
(dp205
g3
g32
sg5
I-1
sg6
g12
sa(dp206
g3
g4
sg5
I-1
sg6
g107
sa(dp207
g3
g73
sg5
I-2
sg6
g30
sa(dp208
g3
g75
sg5
I-2
sg6
g30
sa(dp209
g3
g77
sg5
I-2
sg6
g30
sa(dp210
g3
g67
sg5
I-2
sg6
g12
sa(dp211
g3
g69
sg5
I-2
sg6
g12
sa(dp212
g3
g71
sg5
I-2
sg6
g12
sa(dp213
g3
g73
sg5
I-3
sg6
g30
sa(dp214
g3
g75
sg5
I-3
sg6
g30
sa(dp215
g3
g77
sg5
I-3
sg6
g30
sa(dp216
g3
g67
sg5
I-3
sg6
g12
sa(dp217
g3
g69
sg5
I-3
sg6
g12
sa(dp218
g3
g71
sg5
I-3
sg6
g12
sa(dp219
g3
g14
sg5
I-3
sg6
S'22'
p220
sa(dp221
g3
g4
sg5
I-4
sg6
g44
saa(lp222
(dp223
g3
g38
sg5
I-1
sg6
g12
sa(dp224
g3
g40
sg5
I-1
sg6
g7
sa(dp225
g3
g43
sg5
I-1
sg6
g26
sa(dp226
g3
g46
sg5
I-1
sg6
g107
sa(dp227
g3
g4
sg5
I-2
sg6
g41
sa(dp228
g3
g32
sg5
I-2
sg6
g12
sa(dp229
g3
g14
sg5
I-1
sg6
S'08'
p230
sa(dp231
g3
g73
sg5
I-3
sg6
g22
sa(dp232
g3
g75
sg5
I-3
sg6
g22
sa(dp233
g3
g77
sg5
I-3
sg6
g22
sa(dp234
g3
g67
sg5
I-3
sg6
g12
sa(dp235
g3
g69
sg5
I-3
sg6
g12
sa(dp236
g3
g71
sg5
I-3
sg6
g12
sa(dp237
g3
S'blank_gd-pt'
p238
sg5
I-4
sg6
g7
sa(dp239
g3
g14
sg5
I-3
sg6
S'34'
p240
sa(dp241
g3
g21
sg5
I-4
sg6
g10
sa(dp242
g3
S'blank_pt-gd=gd'
p243
sg5
I-4
sg6
g22
saa(lp244
(dp245
g3
g38
sg5
I-1
sg6
g12
sa(dp246
g3
g43
sg5
I-1
sg6
g7
sa(dp247
g3
g40
sg5
I-1
sg6
g22
sa(dp248
g3
g46
sg5
I-1
sg6
g30
sa(dp249
g3
g4
sg5
I-2
sg6
g12
sa(dp250
g3
g14
sg5
I-2
sg6
S'60'
p251
sa(dp252
g3
g4
sg5
I-3
sg6
g22
saa(lp253
(dp254
g3
g4
sg5
I-1
sg6
g10
sa(dp255
g3
g73
sg5
I-2
sg6
g10
sa(dp256
g3
g75
sg5
I-2
sg6
g10
sa(dp257
g3
g77
sg5
I-2
sg6
g10
sa(dp258
g3
g67
sg5
I-2
sg6
g12
sa(dp259
g3
g69
sg5
I-2
sg6
g12
sa(dp260
g3
g71
sg5
I-2
sg6
g12
sa(dp261
g3
S'blank_gd-ptZ'
p262
sg5
I-3
sg6
g10
sa(dp263
g3
S'blank_pt-gd=gdZ'
p264
sg5
I-3
sg6
g10
sa(dp265
g3
S'blank_0-N=N'
p266
sg5
I-3
sg6
g10
sa(dp267
g3
g21
sg5
I-3
sg6
g12
sa(dp268
g3
g21
sg5
I-4
sg6
g7
sa(dp269
g3
S'blank_pt-gd=gd'
p270
sg5
I-4
sg6
g10
saa(lp271
(dp272
g3
g38
sg5
I-1
sg6
g12
sa(dp273
g3
g40
sg5
I-1
sg6
g7
sa(dp274
g3
g43
sg5
I-1
sg6
g7
sa(dp275
g3
g46
sg5
I-1
sg6
g10
sa(dp276
g3
g9
sg5
I-2
sg6
g41
sa(dp277
g3
g4
sg5
I-2
sg6
g12
sa(dp278
g3
g73
sg5
I-3
sg6
g7
sa(dp279
g3
g75
sg5
I-3
sg6
g7
sa(dp280
g3
g77
sg5
I-3
sg6
g7
sa(dp281
g3
g67
sg5
I-3
sg6
g12
sa(dp282
g3
g69
sg5
I-3
sg6
g12
sa(dp283
g3
g71
sg5
I-3
sg6
g12
sa(dp284
g3
S'blank_gd-ptZ'
p285
sg5
I-4
sg6
g7
sa(dp286
g3
S'blank_pt-gd=gdZ'
p287
sg5
I-4
sg6
g7
sa(dp288
g3
S'blank_0-N=N'
p289
sg5
I-4
sg6
g7
sa(dp290
g3
g21
sg5
I-4
sg6
g12
sa(dp291
g3
g21
sg5
I-5
sg6
g41
sa(dp292
g3
S'blank_pt-gd=gd'
p293
sg5
I-5
sg6
g7
saa(lp294
(dp295
g3
g38
sg5
I-1
sg6
g12
sa(dp296
g3
g43
sg5
I-1
sg6
g41
sa(dp297
g3
g40
sg5
I-1
sg6
g7
sa(dp298
g3
g46
sg5
I-1
sg6
g44
sa(dp299
g3
g73
sg5
I-2
sg6
g10
sa(dp300
g3
g75
sg5
I-2
sg6
g10
sa(dp301
g3
g77
sg5
I-2
sg6
g10
sa(dp302
g3
g67
sg5
I-2
sg6
g12
sa(dp303
g3
g69
sg5
I-2
sg6
g12
sa(dp304
g3
g71
sg5
I-2
sg6
g12
sa(dp305
g3
S'blank_gd-ptZ'
p306
sg5
I-3
sg6
g10
sa(dp307
g3
S'blank_pt-gd=gdZ'
p308
sg5
I-3
sg6
g10
sa(dp309
g3
S'blank_0-N=N'
p310
sg5
I-3
sg6
g10
sa(dp311
g3
g21
sg5
I-3
sg6
g12
sa(dp312
g3
S'blank_correct_col'
p313
sg5
I-4
sg6
g10
sa(dp314
g3
g21
sg5
I-4
sg6
g30
saa.