(lp0
(lp1
(dp2
S'type'
p3
S'correct_col'
p4
sS'pos'
p5
I-1
sS'result'
p6
S'2'
p7
sa(dp8
g3
S'N-N=N'
p9
sg5
I-2
sg6
S'4'
p10
sa(dp11
g3
g4
sg5
I-2
sg6
S'0'
p12
sa(dp13
g3
S'incomplete'
p14
sg5
I-1
sg6
S'02'
p15
sa(dp16
g3
S'blank_correct_col'
p17
sg5
I-3
sg6
g7
sa(dp18
g3
g14
sg5
I-2
sg6
S'60'
p19
sa(dp20
g3
S'copy'
p21
sg5
I-3
sg6
S'6'
p22
saa(lp23
(dp24
g3
g4
sg5
I-1
sg6
g12
sa(dp25
g3
g9
sg5
I-1
sg6
S'5'
p26
sa(dp27
g3
g14
sg5
I-1
sg6
S'80'
p28
sa(dp29
g3
g4
sg5
I-2
sg6
S'8'
p30
sa(dp31
g3
S'N-0=0'
p32
sg5
I-2
sg6
g12
sa(dp33
g3
g4
sg5
I-3
sg6
g22
sa(dp34
g3
g14
sg5
I-2
sg6
S'68'
p35
saa(lp36
(dp37
g3
S'pt-gd=0'
p38
sg5
I-1
sg6
g12
sa(dp39
g3
S'gd-pt'
p40
sg5
I-1
sg6
S'1'
p41
sa(dp42
g3
S'pt-gd=pt'
p43
sg5
I-1
sg6
S'3'
p44
sa(dp45
g3
S'pt-gd=gd'
p46
sg5
I-1
sg6
g10
sa(dp47
g3
g4
sg5
I-2
sg6
g10
saa(lp48
(dp49
g3
g4
sg5
I-1
sg6
g7
sa(dp50
g3
S'blank_gd-pt'
p51
sg5
I-2
sg6
g44
sa(dp52
g3
S'blank_pt-gd=gd'
p53
sg5
I-2
sg6
g44
sa(dp54
g3
S'blank_0-N=N'
p55
sg5
I-2
sg6
g44
sa(dp56
g3
g21
sg5
I-2
sg6
g12
sa(dp57
g3
g14
sg5
I-1
sg6
S'02'
p58
sa(dp59
g3
g21
sg5
I-3
sg6
g44
sa(dp60
g3
S'blank_correct_col'
p61
sg5
I-3
sg6
g12
sa(dp62
g3
S'blank_correct_col'
p63
sg5
I-4
sg6
g26
sa(dp64
g3
g21
sg5
I-4
sg6
g30
saa(lp65
(dp66
g3
g38
sg5
I-1
sg6
g12
sa(dp67
g3
g43
sg5
I-1
sg6
g12
sa(dp68
g3
S'0-N=0'
p69
sg5
I-1
sg6
g12
sa(dp70
g3
g40
sg5
I-1
sg6
g44
sa(dp71
g3
g46
sg5
I-1
sg6
g44
sa(dp72
g3
S'0-N=N'
p73
sg5
I-1
sg6
g44
sa(dp74
g3
g4
sg5
I-2
sg6
g44
saa(lp75
(dp76
g3
g38
sg5
I-1
sg6
g12
sa(dp77
g3
g40
sg5
I-1
sg6
g41
sa(dp78
g3
g43
sg5
I-1
sg6
g7
sa(dp79
g3
g46
sg5
I-1
sg6
g44
sa(dp80
g3
S'blank_correct_col'
p81
sg5
I-2
sg6
g44
sa(dp82
g3
g14
sg5
I-1
sg6
S'59'
p83
sa(dp84
g3
g21
sg5
I-2
sg6
g22
sa(dp85
g3
S'blank_correct_col'
p86
sg5
I-3
sg6
g7
sa(dp87
g3
g21
sg5
I-3
sg6
g26
saa(lp88
(dp89
g3
g38
sg5
I-1
sg6
g12
sa(dp90
g3
g43
sg5
I-1
sg6
g7
sa(dp91
g3
g40
sg5
I-1
sg6
g10
sa(dp92
g3
g46
sg5
I-1
sg6
g22
sa(dp93
g3
g4
sg5
I-2
sg6
g41
sa(dp94
g3
g14
sg5
I-1
sg6
S'06'
p95
sa(dp96
g3
g4
sg5
I-3
sg6
g22
sa(dp97
g3
g14
sg5
I-2
sg6
S'61'
p98
saa(lp99
(dp100
g3
g32
sg5
I-1
sg6
g12
sa(dp101
g3
g4
sg5
I-1
sg6
g22
sa(dp102
g3
g40
sg5
I-2
sg6
S'7'
p103
sa(dp104
g3
g46
sg5
I-2
sg6
g103
sa(dp105
g3
g73
sg5
I-2
sg6
g103
sa(dp106
g3
g38
sg5
I-2
sg6
g12
sa(dp107
g3
g43
sg5
I-2
sg6
g12
sa(dp108
g3
g69
sg5
I-2
sg6
g12
sa(dp109
g3
g21
sg5
I-3
sg6
g41
sa(dp110
g3
S'blank_gd-pt'
p111
sg5
I-3
sg6
g22
sa(dp112
g3
S'blank_pt-gd=gd'
p113
sg5
I-3
sg6
g103
saa(lp114
(dp115
g3
g38
sg5
I-1
sg6
g12
sa(dp116
g3
g40
sg5
I-1
sg6
g7
sa(dp117
g3
g43
sg5
I-1
sg6
g22
sa(dp118
g3
g46
sg5
I-1
sg6
g30
sa(dp119
g3
g43
sg5
I-2
sg6
g41
sa(dp120
g3
g40
sg5
I-2
sg6
g30
sa(dp121
g3
g46
sg5
I-2
sg6
S'9'
p122
sa(dp123
g3
g38
sg5
I-2
sg6
g12
sa(dp124
g3
g14
sg5
I-2
sg6
S'12'
p125
sa(dp126
g3
g4
sg5
I-3
sg6
g7
saa(lp127
(dp128
g3
g38
sg5
I-1
sg6
g12
sa(dp129
g3
g40
sg5
I-1
sg6
g44
sa(dp130
g3
g43
sg5
I-1
sg6
g10
sa(dp131
g3
g46
sg5
I-1
sg6
g103
sa(dp132
g3
g40
sg5
I-2
sg6
g7
sa(dp133
g3
g43
sg5
I-2
sg6
g22
sa(dp134
g3
g46
sg5
I-2
sg6
g30
sa(dp135
g3
g38
sg5
I-2
sg6
g12
sa(dp136
g3
g40
sg5
I-3
sg6
g44
sa(dp137
g3
g43
sg5
I-3
sg6
g26
sa(dp138
g3
g46
sg5
I-3
sg6
g30
sa(dp139
g3
g38
sg5
I-3
sg6
g12
sa(dp140
g3
g21
sg5
I-4
sg6
g41
sa(dp141
g3
S'blank_gd-pt'
p142
sg5
I-4
sg6
g103
sa(dp143
g3
S'blank_pt-gd=gd'
p144
sg5
I-4
sg6
g30
saa(lp145
(dp146
g3
g38
sg5
I-1
sg6
g12
sa(dp147
g3
g43
sg5
I-1
sg6
g41
sa(dp148
g3
g40
sg5
I-1
sg6
g22
sa(dp149
g3
g46
sg5
I-1
sg6
g103
sa(dp150
g3
g9
sg5
I-2
sg6
g122
sa(dp151
g3
g4
sg5
I-2
sg6
g12
sa(dp152
g3
g40
sg5
I-3
sg6
g41
sa(dp153
g3
g43
sg5
I-3
sg6
g26
sa(dp154
g3
g46
sg5
I-3
sg6
g22
sa(dp155
g3
g38
sg5
I-3
sg6
g12
sa(dp156
g3
g14
sg5
I-3
sg6
S'39'
p157
sa(dp158
g3
g4
sg5
I-4
sg6
g10
saa(lp159
(dp160
g3
g38
sg5
I-1
sg6
g12
sa(dp161
g3
g43
sg5
I-1
sg6
g41
sa(dp162
g3
g40
sg5
I-1
sg6
g44
sa(dp163
g3
g46
sg5
I-1
sg6
g10
sa(dp164
g3
g9
sg5
I-2
sg6
g41
sa(dp165
g3
g14
sg5
I-2
sg6
S'10'
p166
sa(dp167
g3
g4
sg5
I-2
sg6
g12
sa(dp168
g3
g4
sg5
I-3
sg6
g41
saa(lp169
(dp170
g3
g38
sg5
I-1
sg6
g12
sa(dp171
g3
g40
sg5
I-1
sg6
g7
sa(dp172
g3
g43
sg5
I-1
sg6
g44
sa(dp173
g3
g46
sg5
I-1
sg6
g26
sa(dp174
g3
g9
sg5
I-2
sg6
g41
sa(dp175
g3
g4
sg5
I-2
sg6
g12
sa(dp176
g3
g14
sg5
I-2
sg6
S'60'
p177
sa(dp178
g3
g4
sg5
I-3
sg6
g22
sa(dp179
g3
g21
sg5
I-4
sg6
g41
sa(dp180
g3
g14
sg5
I-3
sg6
S'16'
p181
sa(dp182
g3
S'blank_pt-gd=gd'
p183
sg5
I-4
sg6
g7
saa(lp184
(dp185
g3
g38
sg5
I-1
sg6
g12
sa(dp186
g3
g43
sg5
I-1
sg6
g7
sa(dp187
g3
g40
sg5
I-1
sg6
g103
sa(dp188
g3
g46
sg5
I-1
sg6
g122
sa(dp189
g3
g40
sg5
I-2
sg6
g44
sa(dp190
g3
g46
sg5
I-2
sg6
g44
sa(dp191
g3
g73
sg5
I-2
sg6
g44
sa(dp192
g3
g38
sg5
I-2
sg6
g12
sa(dp193
g3
g43
sg5
I-2
sg6
g12
sa(dp194
g3
g69
sg5
I-2
sg6
g12
sa(dp195
g3
g21
sg5
I-3
sg6
g41
sa(dp196
g3
S'blank_gd-pt'
p197
sg5
I-3
sg6
g7
sa(dp198
g3
S'blank_pt-gd=gd'
p199
sg5
I-3
sg6
g44
saa(lp200
(dp201
g3
g32
sg5
I-1
sg6
g12
sa(dp202
g3
g4
sg5
I-1
sg6
g103
sa(dp203
g3
g40
sg5
I-2
sg6
g30
sa(dp204
g3
g46
sg5
I-2
sg6
g30
sa(dp205
g3
g73
sg5
I-2
sg6
g30
sa(dp206
g3
g38
sg5
I-2
sg6
g12
sa(dp207
g3
g43
sg5
I-2
sg6
g12
sa(dp208
g3
g69
sg5
I-2
sg6
g12
sa(dp209
g3
g40
sg5
I-3
sg6
g30
sa(dp210
g3
g46
sg5
I-3
sg6
g30
sa(dp211
g3
g73
sg5
I-3
sg6
g30
sa(dp212
g3
g38
sg5
I-3
sg6
g12
sa(dp213
g3
g43
sg5
I-3
sg6
g12
sa(dp214
g3
g69
sg5
I-3
sg6
g12
sa(dp215
g3
g14
sg5
I-3
sg6
S'22'
p216
sa(dp217
g3
g4
sg5
I-4
sg6
g44
saa(lp218
(dp219
g3
g38
sg5
I-1
sg6
g12
sa(dp220
g3
g40
sg5
I-1
sg6
g7
sa(dp221
g3
g43
sg5
I-1
sg6
g26
sa(dp222
g3
g46
sg5
I-1
sg6
g103
sa(dp223
g3
g4
sg5
I-2
sg6
g41
sa(dp224
g3
g32
sg5
I-2
sg6
g12
sa(dp225
g3
g14
sg5
I-1
sg6
S'08'
p226
sa(dp227
g3
g40
sg5
I-3
sg6
g22
sa(dp228
g3
g46
sg5
I-3
sg6
g22
sa(dp229
g3
g73
sg5
I-3
sg6
g22
sa(dp230
g3
g38
sg5
I-3
sg6
g12
sa(dp231
g3
g43
sg5
I-3
sg6
g12
sa(dp232
g3
g69
sg5
I-3
sg6
g12
sa(dp233
g3
S'blank_gd-pt'
p234
sg5
I-4
sg6
g7
sa(dp235
g3
g14
sg5
I-3
sg6
S'34'
p236
sa(dp237
g3
g21
sg5
I-4
sg6
g10
sa(dp238
g3
S'blank_pt-gd=gd'
p239
sg5
I-4
sg6
g22
saa(lp240
(dp241
g3
g38
sg5
I-1
sg6
g12
sa(dp242
g3
g43
sg5
I-1
sg6
g7
sa(dp243
g3
g40
sg5
I-1
sg6
g22
sa(dp244
g3
g46
sg5
I-1
sg6
g30
sa(dp245
g3
g4
sg5
I-2
sg6
g12
sa(dp246
g3
g14
sg5
I-2
sg6
S'60'
p247
sa(dp248
g3
g4
sg5
I-3
sg6
g22
saa(lp249
(dp250
g3
g4
sg5
I-1
sg6
g10
sa(dp251
g3
g40
sg5
I-2
sg6
g10
sa(dp252
g3
g46
sg5
I-2
sg6
g10
sa(dp253
g3
g73
sg5
I-2
sg6
g10
sa(dp254
g3
g38
sg5
I-2
sg6
g12
sa(dp255
g3
g43
sg5
I-2
sg6
g12
sa(dp256
g3
g69
sg5
I-2
sg6
g12
sa(dp257
g3
S'blank_gd-pt'
p258
sg5
I-3
sg6
g10
sa(dp259
g3
S'blank_pt-gd=gd'
p260
sg5
I-3
sg6
g10
sa(dp261
g3
S'blank_0-N=N'
p262
sg5
I-3
sg6
g10
sa(dp263
g3
g21
sg5
I-3
sg6
g12
sa(dp264
g3
g21
sg5
I-4
sg6
g7
sa(dp265
g3
S'blank_pt-gd=gd'
p266
sg5
I-4
sg6
g10
saa(lp267
(dp268
g3
g38
sg5
I-1
sg6
g12
sa(dp269
g3
g40
sg5
I-1
sg6
g7
sa(dp270
g3
g43
sg5
I-1
sg6
g7
sa(dp271
g3
g46
sg5
I-1
sg6
g10
sa(dp272
g3
g9
sg5
I-2
sg6
g41
sa(dp273
g3
g4
sg5
I-2
sg6
g12
sa(dp274
g3
g40
sg5
I-3
sg6
g7
sa(dp275
g3
g46
sg5
I-3
sg6
g7
sa(dp276
g3
g73
sg5
I-3
sg6
g7
sa(dp277
g3
g38
sg5
I-3
sg6
g12
sa(dp278
g3
g43
sg5
I-3
sg6
g12
sa(dp279
g3
g69
sg5
I-3
sg6
g12
sa(dp280
g3
S'blank_gd-pt'
p281
sg5
I-4
sg6
g7
sa(dp282
g3
S'blank_pt-gd=gd'
p283
sg5
I-4
sg6
g7
sa(dp284
g3
S'blank_0-N=N'
p285
sg5
I-4
sg6
g7
sa(dp286
g3
g21
sg5
I-4
sg6
g12
sa(dp287
g3
g21
sg5
I-5
sg6
g41
sa(dp288
g3
S'blank_pt-gd=gd'
p289
sg5
I-5
sg6
g7
saa(lp290
(dp291
g3
g38
sg5
I-1
sg6
g12
sa(dp292
g3
g43
sg5
I-1
sg6
g41
sa(dp293
g3
g40
sg5
I-1
sg6
g7
sa(dp294
g3
g46
sg5
I-1
sg6
g44
sa(dp295
g3
g40
sg5
I-2
sg6
g10
sa(dp296
g3
g46
sg5
I-2
sg6
g10
sa(dp297
g3
g73
sg5
I-2
sg6
g10
sa(dp298
g3
g38
sg5
I-2
sg6
g12
sa(dp299
g3
g43
sg5
I-2
sg6
g12
sa(dp300
g3
g69
sg5
I-2
sg6
g12
sa(dp301
g3
S'blank_gd-pt'
p302
sg5
I-3
sg6
g10
sa(dp303
g3
S'blank_pt-gd=gd'
p304
sg5
I-3
sg6
g10
sa(dp305
g3
S'blank_0-N=N'
p306
sg5
I-3
sg6
g10
sa(dp307
g3
g21
sg5
I-3
sg6
g12
sa(dp308
g3
S'blank_correct_col'
p309
sg5
I-4
sg6
g10
sa(dp310
g3
g21
sg5
I-4
sg6
g30
saa.