(lp0
(lp1
(dp2
S'type'
p3
S'correct_col'
p4
sS'pos'
p5
I-2
sS'result'
p6
S'0'
p7
sa(dp8
g3
g4
sg5
I-1
sg6
S'2'
p9
sa(dp10
g3
S'blank_correct_col'
p11
sg5
I-3
sg6
g9
sa(dp12
g3
S'copy'
p13
sg5
I-3
sg6
S'6'
p14
saa(lp15
(dp16
g3
g4
sg5
I-1
sg6
g7
sa(dp17
g3
S'N-0=0'
p18
sg5
I-2
sg6
g7
sa(dp19
g3
g4
sg5
I-2
sg6
S'8'
p20
sa(dp21
g3
g4
sg5
I-3
sg6
g14
saa(lp22
(dp23
g3
S'pt-gd=0'
p24
sg5
I-1
sg6
g7
sa(dp25
g3
S'gd-pt'
p26
sg5
I-1
sg6
S'1'
p27
sa(dp28
g3
g4
sg5
I-2
sg6
S'4'
p29
saa(lp30
(dp31
g3
g13
sg5
I-2
sg6
g7
sa(dp32
g3
S'blank_correct_col'
p33
sg5
I-3
sg6
g7
sa(dp34
g3
S'blank_pt-gd=?'
p35
sg5
I-2
sg6
S'X'
p36
sa(dp37
g3
g4
sg5
I-1
sg6
g9
sa(dp38
g3
S'blank_0-N=N'
p39
sg5
I-2
sg6
S'3'
p40
sa(dp41
g3
g13
sg5
I-3
sg6
g40
sa(dp42
g3
S'blank_correct_col'
p43
sg5
I-4
sg6
S'5'
p44
sa(dp45
g3
g13
sg5
I-4
sg6
g20
saa(lp46
(dp47
g3
S'0-N=0'
p48
sg5
I-1
sg6
g7
sa(dp49
g3
S'0-N=N'
p50
sg5
I-1
sg6
g40
sa(dp51
g3
g4
sg5
I-2
sg6
g40
saa(lp52
(dp53
g3
g24
sg5
I-1
sg6
g7
sa(dp54
g3
g26
sg5
I-1
sg6
g27
sa(dp55
g3
S'blank_correct_col'
p56
sg5
I-2
sg6
g40
sa(dp57
g3
g13
sg5
I-2
sg6
g14
sa(dp58
g3
S'blank_correct_col'
p59
sg5
I-3
sg6
g9
sa(dp60
g3
g13
sg5
I-3
sg6
g44
saa(lp61
(dp62
g3
g24
sg5
I-1
sg6
g7
sa(dp63
g3
g26
sg5
I-1
sg6
g29
sa(dp64
g3
g4
sg5
I-2
sg6
g27
sa(dp65
g3
g4
sg5
I-3
sg6
g14
saa(lp66
(dp67
g3
g18
sg5
I-1
sg6
g7
sa(dp68
g3
g48
sg5
I-2
sg6
g7
sa(dp69
g3
S'blank_pt-gd=0'
p70
sg5
I-3
sg6
g7
sa(dp71
g3
S'pt-gd=?'
p72
sg5
I-2
sg6
g36
sa(dp73
g3
S'blank_pt-gd=?'
p74
sg5
I-3
sg6
g36
sa(dp75
g3
g4
sg5
I-1
sg6
g14
sa(dp76
g3
g50
sg5
I-2
sg6
S'7'
p77
sa(dp78
g3
g13
sg5
I-3
sg6
g27
sa(dp79
g3
S'blank_gd-pt'
p80
sg5
I-3
sg6
g14
saa(lp81
(dp82
g3
g24
sg5
I-1
sg6
g7
sa(dp83
g3
g24
sg5
I-2
sg6
g7
sa(dp84
g3
g72
sg5
I-2
sg6
g36
sa(dp85
g3
g26
sg5
I-1
sg6
g9
sa(dp86
g3
g26
sg5
I-2
sg6
g20
sa(dp87
g3
g4
sg5
I-3
sg6
g9
saa(lp88
(dp89
g3
g24
sg5
I-1
sg6
g7
sa(dp90
g3
g24
sg5
I-2
sg6
g7
sa(dp91
g3
g24
sg5
I-3
sg6
g7
sa(dp92
g3
S'blank_pt-gd=0'
p93
sg5
I-4
sg6
g7
sa(dp94
g3
g72
sg5
I-2
sg6
g36
sa(dp95
g3
g72
sg5
I-3
sg6
g36
sa(dp96
g3
S'blank_pt-gd=?'
p97
sg5
I-4
sg6
g36
sa(dp98
g3
g26
sg5
I-1
sg6
g40
sa(dp99
g3
g26
sg5
I-2
sg6
g9
sa(dp100
g3
g26
sg5
I-3
sg6
g40
sa(dp101
g3
g13
sg5
I-4
sg6
g27
sa(dp102
g3
S'blank_gd-pt'
p103
sg5
I-4
sg6
g77
saa(lp104
(dp105
g3
g24
sg5
I-1
sg6
g7
sa(dp106
g3
g4
sg5
I-2
sg6
g7
sa(dp107
g3
g24
sg5
I-3
sg6
g7
sa(dp108
g3
g72
sg5
I-3
sg6
g36
sa(dp109
g3
g26
sg5
I-1
sg6
g14
sa(dp110
g3
g26
sg5
I-3
sg6
g27
sa(dp111
g3
g4
sg5
I-4
sg6
g29
saa(lp112
(dp113
g3
g24
sg5
I-1
sg6
g7
sa(dp114
g3
g4
sg5
I-2
sg6
g7
sa(dp115
g3
g26
sg5
I-1
sg6
g40
sa(dp116
g3
g4
sg5
I-3
sg6
g27
saa(lp117
(dp118
g3
g24
sg5
I-1
sg6
g7
sa(dp119
g3
g4
sg5
I-2
sg6
g7
sa(dp120
g3
S'blank_pt-gd=0'
p121
sg5
I-4
sg6
g7
sa(dp122
g3
S'blank_pt-gd=?'
p123
sg5
I-4
sg6
g36
sa(dp124
g3
g26
sg5
I-1
sg6
g9
sa(dp125
g3
g4
sg5
I-3
sg6
g14
sa(dp126
g3
g13
sg5
I-4
sg6
g27
saa(lp127
(dp128
g3
g24
sg5
I-1
sg6
g7
sa(dp129
g3
g48
sg5
I-2
sg6
g7
sa(dp130
g3
S'blank_pt-gd=0'
p131
sg5
I-3
sg6
g7
sa(dp132
g3
g72
sg5
I-2
sg6
g36
sa(dp133
g3
S'blank_pt-gd=?'
p134
sg5
I-3
sg6
g36
sa(dp135
g3
g26
sg5
I-1
sg6
g77
sa(dp136
g3
g50
sg5
I-2
sg6
g40
sa(dp137
g3
g13
sg5
I-3
sg6
g27
sa(dp138
g3
S'blank_gd-pt'
p139
sg5
I-3
sg6
g9
saa(lp140
(dp141
g3
g18
sg5
I-1
sg6
g7
sa(dp142
g3
g48
sg5
I-2
sg6
g7
sa(dp143
g3
g48
sg5
I-3
sg6
g7
sa(dp144
g3
g72
sg5
I-2
sg6
g36
sa(dp145
g3
g72
sg5
I-3
sg6
g36
sa(dp146
g3
g4
sg5
I-1
sg6
g77
sa(dp147
g3
g50
sg5
I-2
sg6
g20
sa(dp148
g3
g50
sg5
I-3
sg6
g20
sa(dp149
g3
g4
sg5
I-4
sg6
g40
saa(lp150
(dp151
g3
g24
sg5
I-1
sg6
g7
sa(dp152
g3
g18
sg5
I-2
sg6
g7
sa(dp153
g3
g48
sg5
I-3
sg6
g7
sa(dp154
g3
S'blank_pt-gd=0'
p155
sg5
I-4
sg6
g7
sa(dp156
g3
g72
sg5
I-3
sg6
g36
sa(dp157
g3
S'blank_pt-gd=?'
p158
sg5
I-4
sg6
g36
sa(dp159
g3
g26
sg5
I-1
sg6
g9
sa(dp160
g3
g4
sg5
I-2
sg6
g27
sa(dp161
g3
g50
sg5
I-3
sg6
g14
sa(dp162
g3
S'blank_gd-pt'
p163
sg5
I-4
sg6
g9
sa(dp164
g3
g13
sg5
I-4
sg6
g29
saa(lp165
(dp166
g3
g24
sg5
I-1
sg6
g7
sa(dp167
g3
g4
sg5
I-2
sg6
g7
sa(dp168
g3
g26
sg5
I-1
sg6
g14
sa(dp169
g3
g4
sg5
I-3
sg6
g14
saa(lp170
(dp171
g3
g48
sg5
I-2
sg6
g7
sa(dp172
g3
g13
sg5
I-3
sg6
g7
sa(dp173
g3
S'blank_pt-gd=0'
p174
sg5
I-4
sg6
g7
sa(dp175
g3
g72
sg5
I-2
sg6
g36
sa(dp176
g3
S'blank_pt-gd=?'
p177
sg5
I-3
sg6
g36
sa(dp178
g3
S'blank_pt-gd=?'
p179
sg5
I-4
sg6
g36
sa(dp180
g3
g4
sg5
I-1
sg6
g29
sa(dp181
g3
g50
sg5
I-2
sg6
g29
sa(dp182
g3
S'blank_0-N=N'
p183
sg5
I-3
sg6
g29
sa(dp184
g3
g13
sg5
I-4
sg6
g9
saa(lp185
(dp186
g3
g24
sg5
I-1
sg6
g7
sa(dp187
g3
g4
sg5
I-2
sg6
g7
sa(dp188
g3
g48
sg5
I-3
sg6
g7
sa(dp189
g3
g13
sg5
I-4
sg6
g7
sa(dp190
g3
S'blank_pt-gd=0'
p191
sg5
I-5
sg6
g7
sa(dp192
g3
g72
sg5
I-3
sg6
g36
sa(dp193
g3
S'blank_pt-gd=?'
p194
sg5
I-4
sg6
g36
sa(dp195
g3
S'blank_pt-gd=?'
p196
sg5
I-5
sg6
g36
sa(dp197
g3
g26
sg5
I-1
sg6
g9
sa(dp198
g3
g50
sg5
I-3
sg6
g9
sa(dp199
g3
S'blank_0-N=N'
p200
sg5
I-4
sg6
g9
sa(dp201
g3
g13
sg5
I-5
sg6
g27
saa(lp202
(dp203
g3
g24
sg5
I-1
sg6
g7
sa(dp204
g3
g48
sg5
I-2
sg6
g7
sa(dp205
g3
g13
sg5
I-3
sg6
g7
sa(dp206
g3
g72
sg5
I-2
sg6
g36
sa(dp207
g3
S'blank_pt-gd=?'
p208
sg5
I-3
sg6
g36
sa(dp209
g3
g26
sg5
I-1
sg6
g9
sa(dp210
g3
g50
sg5
I-2
sg6
g29
sa(dp211
g3
S'blank_0-N=N'
p212
sg5
I-3
sg6
g29
sa(dp213
g3
S'blank_correct_col'
p214
sg5
I-4
sg6
g29
sa(dp215
g3
g13
sg5
I-4
sg6
g20
saa.