(lp0
(lp1
(dp2
S'type'
p3
S'0-N=0'
p4
sS'pos'
p5
I-1
sS'result'
p6
S'0'
p7
sa(dp8
g3
S'0-N=N'
p9
sg5
I-1
sg6
S'5'
p10
sa(dp11
g3
S'correct_col'
p12
sg5
I-2
sg6
S'2'
p13
saa(lp14
(dp15
g3
S'N-0=0'
p16
sg5
I-1
sg6
g7
sa(dp17
g3
g4
sg5
I-2
sg6
g7
sa(dp18
g3
S'blank_pt-gd=0'
p19
sg5
I-3
sg6
g7
sa(dp20
g3
g12
sg5
I-1
sg6
S'3'
p21
sa(dp22
g3
g9
sg5
I-2
sg6
S'8'
p23
sa(dp24
g3
S'copy'
p25
sg5
I-3
sg6
S'1'
p26
sa(dp27
g3
S'blank_gd-pt'
p28
sg5
I-3
sg6
S'7'
p29
saa(lp30
(dp31
g3
S'pt-gd=0'
p32
sg5
I-1
sg6
g7
sa(dp33
g3
g16
sg5
I-2
sg6
g7
sa(dp34
g3
g4
sg5
I-3
sg6
g7
sa(dp35
g3
S'blank_pt-gd=0'
p36
sg5
I-4
sg6
g7
sa(dp37
g3
S'gd-pt'
p38
sg5
I-1
sg6
g13
sa(dp39
g3
S'incomplete'
p40
sg5
I-1
sg6
S'58'
p41
sa(dp42
g3
g12
sg5
I-2
sg6
S'6'
p43
sa(dp44
g3
g9
sg5
I-3
sg6
g23
sa(dp45
g3
g40
sg5
I-3
sg6
S'12'
p46
sa(dp47
g3
g25
sg5
I-4
sg6
g13
sa(dp48
g3
S'blank_gd-pt'
p49
sg5
I-4
sg6
g43
saa(lp50
(dp51
g3
g32
sg5
I-1
sg6
g7
sa(dp52
g3
g12
sg5
I-2
sg6
g7
sa(dp53
g3
g32
sg5
I-3
sg6
g7
sa(dp54
g3
g38
sg5
I-1
sg6
g13
sa(dp55
g3
g38
sg5
I-3
sg6
g10
sa(dp56
g3
g40
sg5
I-3
sg6
S'35'
p57
sa(dp58
g3
g12
sg5
I-4
sg6
S'4'
p59
saa(lp60
(dp61
g3
g32
sg5
I-1
sg6
g7
sa(dp62
g3
g4
sg5
I-2
sg6
g7
sa(dp63
g3
S'blank_pt-gd=0'
p64
sg5
I-3
sg6
g7
sa(dp65
g3
g38
sg5
I-1
sg6
g13
sa(dp66
g3
g9
sg5
I-2
sg6
g10
sa(dp67
g3
g25
sg5
I-3
sg6
g26
sa(dp68
g3
S'blank_gd-pt'
p69
sg5
I-3
sg6
g59
saa(lp70
(dp71
g3
g32
sg5
I-1
sg6
g7
sa(dp72
g3
g4
sg5
I-2
sg6
g7
sa(dp73
g3
g25
sg5
I-3
sg6
g7
sa(dp74
g3
g38
sg5
I-1
sg6
g26
sa(dp75
g3
g9
sg5
I-2
sg6
g59
sa(dp76
g3
S'blank_0-N=N'
p77
sg5
I-3
sg6
g59
sa(dp78
g3
S'blank_correct_col'
p79
sg5
I-4
sg6
g13
sa(dp80
g3
g25
sg5
I-4
sg6
g43
saa(lp81
(dp82
g3
g32
sg5
I-1
sg6
g7
sa(dp83
g3
g38
sg5
I-1
sg6
g21
sa(dp84
g3
S'blank_correct_col'
p85
sg5
I-2
sg6
g26
sa(dp86
g3
g40
sg5
I-1
sg6
S'47'
p87
sa(dp88
g3
g25
sg5
I-2
sg6
g10
sa(dp89
g3
S'blank_correct_col'
p90
sg5
I-3
sg6
g59
sa(dp91
g3
g25
sg5
I-3
sg6
g23
saa(lp92
(dp93
g3
g16
sg5
I-1
sg6
g7
sa(dp94
g3
g4
sg5
I-2
sg6
g7
sa(dp95
g3
g4
sg5
I-3
sg6
g7
sa(dp96
g3
g12
sg5
I-1
sg6
g10
sa(dp97
g3
g9
sg5
I-2
sg6
g23
sa(dp98
g3
g9
sg5
I-3
sg6
g29
sa(dp99
g3
g40
sg5
I-3
sg6
S'33'
p100
sa(dp101
g3
g12
sg5
I-4
sg6
g59
saa(lp102
(dp103
g3
g32
sg5
I-1
sg6
g7
sa(dp104
g3
g32
sg5
I-2
sg6
g7
sa(dp105
g3
g32
sg5
I-3
sg6
g7
sa(dp106
g3
S'blank_pt-gd=0'
p107
sg5
I-4
sg6
g7
sa(dp108
g3
g38
sg5
I-1
sg6
g43
sa(dp109
g3
g38
sg5
I-2
sg6
g43
sa(dp110
g3
g38
sg5
I-3
sg6
g10
sa(dp111
g3
g25
sg5
I-4
sg6
g26
sa(dp112
g3
S'blank_gd-pt'
p113
sg5
I-4
sg6
g10
saa(lp114
(dp115
g3
g12
sg5
I-2
sg6
g7
sa(dp116
g3
g12
sg5
I-1
sg6
g13
sa(dp117
g3
g40
sg5
I-1
sg6
S'02'
p118
sa(dp119
g3
S'blank_correct_col'
p120
sg5
I-3
sg6
g13
sa(dp121
g3
g40
sg5
I-2
sg6
S'40'
p122
sa(dp123
g3
g25
sg5
I-3
sg6
g59
saa(lp124
(dp125
g3
g32
sg5
I-1
sg6
g7
sa(dp126
g3
g38
sg5
I-1
sg6
g26
sa(dp127
g3
g40
sg5
I-1
sg6
S'39'
p128
sa(dp129
g3
g12
sg5
I-2
sg6
g59
sa(dp130
g3
g12
sg5
I-3
sg6
g26
sa(dp131
g3
g40
sg5
I-2
sg6
S'14'
p132
saa(lp133
(dp134
g3
g32
sg5
I-1
sg6
g7
sa(dp135
g3
g38
sg5
I-1
sg6
g13
sa(dp136
g3
g12
sg5
I-2
sg6
g59
saa(lp137
(dp138
g3
g32
sg5
I-1
sg6
g7
sa(dp139
g3
g12
sg5
I-2
sg6
g7
sa(dp140
g3
S'blank_pt-gd=0'
p141
sg5
I-4
sg6
g7
sa(dp142
g3
g38
sg5
I-1
sg6
g21
sa(dp143
g3
g40
sg5
I-2
sg6
S'70'
p144
sa(dp145
g3
g12
sg5
I-3
sg6
g29
sa(dp146
g3
g25
sg5
I-4
sg6
g26
sa(dp147
g3
g40
sg5
I-3
sg6
S'17'
p148
saa(lp149
(dp150
g3
g32
sg5
I-1
sg6
g7
sa(dp151
g3
g32
sg5
I-2
sg6
g7
sa(dp152
g3
g38
sg5
I-1
sg6
g10
sa(dp153
g3
g38
sg5
I-2
sg6
g59
sa(dp154
g3
g40
sg5
I-2
sg6
S'16'
p155
sa(dp156
g3
g12
sg5
I-3
sg6
g13
saa(lp157
(dp158
g3
g25
sg5
I-3
sg6
g7
sa(dp159
g3
g12
sg5
I-1
sg6
g10
sa(dp160
g3
S'blank_correct_col'
p161
sg5
I-2
sg6
g21
sa(dp162
g3
g25
sg5
I-2
sg6
g43
sa(dp163
g3
g40
sg5
I-1
sg6
S'65'
p164
sa(dp165
g3
S'blank_0-N=N'
p166
sg5
I-3
sg6
g21
sa(dp167
g3
S'blank_correct_col'
p168
sg5
I-4
sg6
g13
sa(dp169
g3
g25
sg5
I-4
sg6
g10
saa(lp170
(dp171
g3
g32
sg5
I-1
sg6
g7
sa(dp172
g3
g12
sg5
I-2
sg6
g7
sa(dp173
g3
g4
sg5
I-3
sg6
g7
sa(dp174
g3
g25
sg5
I-4
sg6
g7
sa(dp175
g3
g38
sg5
I-1
sg6
g59
sa(dp176
g3
g9
sg5
I-3
sg6
g26
sa(dp177
g3
S'blank_0-N=N'
p178
sg5
I-4
sg6
g26
sa(dp179
g3
S'blank_correct_col'
p180
sg5
I-5
sg6
g26
sa(dp181
g3
g25
sg5
I-5
sg6
g13
saa(lp182
(dp183
g3
g32
sg5
I-1
sg6
g7
sa(dp184
g3
g12
sg5
I-2
sg6
g7
sa(dp185
g3
g38
sg5
I-1
sg6
g21
sa(dp186
g3
g40
sg5
I-2
sg6
S'40'
p187
sa(dp188
g3
g12
sg5
I-3
sg6
g59
saa(lp189
(dp190
g3
g4
sg5
I-2
sg6
g7
sa(dp191
g3
g25
sg5
I-3
sg6
g7
sa(dp192
g3
S'blank_pt-gd=0'
p193
sg5
I-4
sg6
g7
sa(dp194
g3
g12
sg5
I-1
sg6
g21
sa(dp195
g3
g9
sg5
I-2
sg6
g43
sa(dp196
g3
S'blank_0-N=N'
p197
sg5
I-3
sg6
g43
sa(dp198
g3
g25
sg5
I-4
sg6
g21
saa(lp199
(dp200
g3
g32
sg5
I-1
sg6
g7
sa(dp201
g3
g12
sg5
I-2
sg6
g7
sa(dp202
g3
g38
sg5
I-1
sg6
g21
sa(dp203
g3
g40
sg5
I-2
sg6
S'40'
p204
sa(dp205
g3
g12
sg5
I-3
sg6
g59
saa(lp206
(dp207
g3
g12
sg5
I-1
sg6
g7
sa(dp208
g3
g16
sg5
I-2
sg6
g7
sa(dp209
g3
g40
sg5
I-1
sg6
S'90'
p210
sa(dp211
g3
g12
sg5
I-2
sg6
S'9'
p212
sa(dp213
g3
g12
sg5
I-3
sg6
g13
sa(dp214
g3
g40
sg5
I-2
sg6
S'29'
p215
saa.