(lp0
(lp1
(dp2
S'type'
p3
S'0-N=0'
p4
sS'pos'
p5
I-1
sS'result'
p6
S'0'
p7
sa(dp8
g3
S'0-N=N'
p9
sg5
I-1
sg6
S'5'
p10
sa(dp11
g3
S'correct_col'
p12
sg5
I-2
sg6
S'2'
p13
saa(lp14
(dp15
g3
S'N-0=0'
p16
sg5
I-1
sg6
g7
sa(dp17
g3
g4
sg5
I-2
sg6
g7
sa(dp18
g3
S'blank_pt-gd=0'
p19
sg5
I-3
sg6
g7
sa(dp20
g3
S'pt-gd=?'
p21
sg5
I-2
sg6
S'X'
p22
sa(dp23
g3
S'blank_pt-gd=?'
p24
sg5
I-3
sg6
g22
sa(dp25
g3
g12
sg5
I-1
sg6
S'3'
p26
sa(dp27
g3
g9
sg5
I-2
sg6
S'8'
p28
sa(dp29
g3
S'copy'
p30
sg5
I-3
sg6
S'1'
p31
sa(dp32
g3
S'blank_gd-pt'
p33
sg5
I-3
sg6
S'7'
p34
sa(dp35
g3
S'blank_pt-gd=gd'
p36
sg5
I-3
sg6
g28
saa(lp37
(dp38
g3
S'pt-gd=0'
p39
sg5
I-1
sg6
g7
sa(dp40
g3
g16
sg5
I-2
sg6
g7
sa(dp41
g3
g4
sg5
I-3
sg6
g7
sa(dp42
g3
S'blank_pt-gd=0'
p43
sg5
I-4
sg6
g7
sa(dp44
g3
g21
sg5
I-3
sg6
g22
sa(dp45
g3
S'blank_pt-gd=?'
p46
sg5
I-4
sg6
g22
sa(dp47
g3
S'gd-pt'
p48
sg5
I-1
sg6
g13
sa(dp49
g3
S'pt-gd=pt'
p50
sg5
I-1
sg6
g26
sa(dp51
g3
S'pt-gd=gd'
p52
sg5
I-1
sg6
g10
sa(dp53
g3
S'incomplete'
p54
sg5
I-1
sg6
S'58'
p55
sa(dp56
g3
g12
sg5
I-2
sg6
S'6'
p57
sa(dp58
g3
g9
sg5
I-3
sg6
g28
sa(dp59
g3
g54
sg5
I-3
sg6
S'12'
p60
sa(dp61
g3
g30
sg5
I-4
sg6
g13
sa(dp62
g3
S'blank_gd-pt'
p63
sg5
I-4
sg6
g57
sa(dp64
g3
S'blank_pt-gd=gd'
p65
sg5
I-4
sg6
g28
saa(lp66
(dp67
g3
g39
sg5
I-1
sg6
g7
sa(dp68
g3
g12
sg5
I-2
sg6
g7
sa(dp69
g3
g39
sg5
I-3
sg6
g7
sa(dp70
g3
g21
sg5
I-3
sg6
g22
sa(dp71
g3
g48
sg5
I-1
sg6
g13
sa(dp72
g3
g50
sg5
I-1
sg6
g26
sa(dp73
g3
g52
sg5
I-1
sg6
g10
sa(dp74
g3
S'N-N=N'
p75
sg5
I-2
sg6
g57
sa(dp76
g3
g50
sg5
I-3
sg6
g26
sa(dp77
g3
g48
sg5
I-3
sg6
g10
sa(dp78
g3
g52
sg5
I-3
sg6
g28
sa(dp79
g3
g54
sg5
I-3
sg6
S'35'
p80
sa(dp81
g3
g12
sg5
I-4
sg6
S'4'
p82
saa(lp83
(dp84
g3
g39
sg5
I-1
sg6
g7
sa(dp85
g3
g4
sg5
I-2
sg6
g7
sa(dp86
g3
S'blank_pt-gd=0'
p87
sg5
I-3
sg6
g7
sa(dp88
g3
g21
sg5
I-2
sg6
g22
sa(dp89
g3
S'blank_pt-gd=?'
p90
sg5
I-3
sg6
g22
sa(dp91
g3
g48
sg5
I-1
sg6
g13
sa(dp92
g3
g50
sg5
I-1
sg6
g82
sa(dp93
g3
g52
sg5
I-1
sg6
g57
sa(dp94
g3
g9
sg5
I-2
sg6
g10
sa(dp95
g3
g30
sg5
I-3
sg6
g31
sa(dp96
g3
S'blank_gd-pt'
p97
sg5
I-3
sg6
g82
sa(dp98
g3
S'blank_pt-gd=gd'
p99
sg5
I-3
sg6
g10
saa(lp100
(dp101
g3
g39
sg5
I-1
sg6
g7
sa(dp102
g3
g4
sg5
I-2
sg6
g7
sa(dp103
g3
g30
sg5
I-3
sg6
g7
sa(dp104
g3
g21
sg5
I-2
sg6
g22
sa(dp105
g3
S'blank_pt-gd=?'
p106
sg5
I-3
sg6
g22
sa(dp107
g3
g48
sg5
I-1
sg6
g31
sa(dp108
g3
g50
sg5
I-1
sg6
g26
sa(dp109
g3
g52
sg5
I-1
sg6
g82
sa(dp110
g3
g9
sg5
I-2
sg6
g82
sa(dp111
g3
S'blank_0-N=N'
p112
sg5
I-3
sg6
g82
sa(dp113
g3
S'blank_correct_col'
p114
sg5
I-4
sg6
g13
sa(dp115
g3
g30
sg5
I-4
sg6
g57
saa(lp116
(dp117
g3
g39
sg5
I-1
sg6
g7
sa(dp118
g3
g50
sg5
I-1
sg6
g31
sa(dp119
g3
g48
sg5
I-1
sg6
g26
sa(dp120
g3
g52
sg5
I-1
sg6
g82
sa(dp121
g3
S'blank_correct_col'
p122
sg5
I-2
sg6
g31
sa(dp123
g3
g54
sg5
I-1
sg6
S'47'
p124
sa(dp125
g3
g30
sg5
I-2
sg6
g10
sa(dp126
g3
S'blank_correct_col'
p127
sg5
I-3
sg6
g82
sa(dp128
g3
g30
sg5
I-3
sg6
g28
saa(lp129
(dp130
g3
g16
sg5
I-1
sg6
g7
sa(dp131
g3
g4
sg5
I-2
sg6
g7
sa(dp132
g3
g4
sg5
I-3
sg6
g7
sa(dp133
g3
g21
sg5
I-2
sg6
g22
sa(dp134
g3
g21
sg5
I-3
sg6
g22
sa(dp135
g3
g12
sg5
I-1
sg6
g10
sa(dp136
g3
g9
sg5
I-2
sg6
g28
sa(dp137
g3
g9
sg5
I-3
sg6
g34
sa(dp138
g3
g54
sg5
I-3
sg6
S'33'
p139
sa(dp140
g3
g12
sg5
I-4
sg6
g82
saa(lp141
(dp142
g3
g39
sg5
I-1
sg6
g7
sa(dp143
g3
g39
sg5
I-2
sg6
g7
sa(dp144
g3
g39
sg5
I-3
sg6
g7
sa(dp145
g3
S'blank_pt-gd=0'
p146
sg5
I-4
sg6
g7
sa(dp147
g3
g21
sg5
I-2
sg6
g22
sa(dp148
g3
g21
sg5
I-3
sg6
g22
sa(dp149
g3
S'blank_pt-gd=?'
p150
sg5
I-4
sg6
g22
sa(dp151
g3
g50
sg5
I-1
sg6
g13
sa(dp152
g3
g48
sg5
I-1
sg6
g57
sa(dp153
g3
g52
sg5
I-1
sg6
g28
sa(dp154
g3
g50
sg5
I-2
sg6
g26
sa(dp155
g3
g48
sg5
I-2
sg6
g57
sa(dp156
g3
g52
sg5
I-2
sg6
S'9'
p157
sa(dp158
g3
g50
sg5
I-3
sg6
g31
sa(dp159
g3
g48
sg5
I-3
sg6
g10
sa(dp160
g3
g52
sg5
I-3
sg6
g57
sa(dp161
g3
g30
sg5
I-4
sg6
g31
sa(dp162
g3
S'blank_gd-pt'
p163
sg5
I-4
sg6
g10
sa(dp164
g3
S'blank_pt-gd=gd'
p165
sg5
I-4
sg6
g57
saa(lp166
(dp167
g3
g12
sg5
I-2
sg6
g7
sa(dp168
g3
g12
sg5
I-1
sg6
g13
sa(dp169
g3
g75
sg5
I-2
sg6
g13
sa(dp170
g3
g54
sg5
I-1
sg6
S'02'
p171
sa(dp172
g3
S'blank_correct_col'
p173
sg5
I-3
sg6
g13
sa(dp174
g3
g54
sg5
I-2
sg6
S'40'
p175
sa(dp176
g3
g30
sg5
I-3
sg6
g82
saa(lp177
(dp178
g3
g39
sg5
I-1
sg6
g7
sa(dp179
g3
g48
sg5
I-1
sg6
g31
sa(dp180
g3
g50
sg5
I-1
sg6
g26
sa(dp181
g3
g52
sg5
I-1
sg6
g82
sa(dp182
g3
g54
sg5
I-1
sg6
S'39'
p183
sa(dp184
g3
g12
sg5
I-2
sg6
g82
sa(dp185
g3
g12
sg5
I-3
sg6
g31
sa(dp186
g3
g54
sg5
I-2
sg6
S'14'
p187
saa(lp188
(dp189
g3
g39
sg5
I-1
sg6
g7
sa(dp190
g3
g48
sg5
I-1
sg6
g13
sa(dp191
g3
g50
sg5
I-1
sg6
g82
sa(dp192
g3
g52
sg5
I-1
sg6
g57
sa(dp193
g3
g12
sg5
I-2
sg6
g82
saa(lp194
(dp195
g3
g39
sg5
I-1
sg6
g7
sa(dp196
g3
g12
sg5
I-2
sg6
g7
sa(dp197
g3
S'blank_pt-gd=0'
p198
sg5
I-4
sg6
g7
sa(dp199
g3
S'blank_pt-gd=?'
p200
sg5
I-4
sg6
g22
sa(dp201
g3
g50
sg5
I-1
sg6
g13
sa(dp202
g3
g48
sg5
I-1
sg6
g26
sa(dp203
g3
g52
sg5
I-1
sg6
g10
sa(dp204
g3
g75
sg5
I-2
sg6
g13
sa(dp205
g3
g54
sg5
I-2
sg6
S'70'
p206
sa(dp207
g3
g12
sg5
I-3
sg6
g34
sa(dp208
g3
g30
sg5
I-4
sg6
g31
sa(dp209
g3
g54
sg5
I-3
sg6
S'17'
p210
sa(dp211
g3
S'blank_pt-gd=gd'
p212
sg5
I-4
sg6
g13
saa(lp213
(dp214
g3
g39
sg5
I-1
sg6
g7
sa(dp215
g3
g39
sg5
I-2
sg6
g7
sa(dp216
g3
g21
sg5
I-2
sg6
g22
sa(dp217
g3
g50
sg5
I-1
sg6
g82
sa(dp218
g3
g48
sg5
I-1
sg6
g10
sa(dp219
g3
g52
sg5
I-1
sg6
g157
sa(dp220
g3
g50
sg5
I-2
sg6
g26
sa(dp221
g3
g48
sg5
I-2
sg6
g82
sa(dp222
g3
g52
sg5
I-2
sg6
g34
sa(dp223
g3
g54
sg5
I-2
sg6
S'16'
p224
sa(dp225
g3
g12
sg5
I-3
sg6
g13
saa(lp226
(dp227
g3
g30
sg5
I-3
sg6
g7
sa(dp228
g3
S'blank_pt-gd=?'
p229
sg5
I-3
sg6
g22
sa(dp230
g3
g12
sg5
I-1
sg6
g10
sa(dp231
g3
S'blank_correct_col'
p232
sg5
I-2
sg6
g26
sa(dp233
g3
g30
sg5
I-2
sg6
g57
sa(dp234
g3
g54
sg5
I-1
sg6
S'65'
p235
sa(dp236
g3
S'blank_0-N=N'
p237
sg5
I-3
sg6
g26
sa(dp238
g3
S'blank_correct_col'
p239
sg5
I-4
sg6
g13
sa(dp240
g3
g30
sg5
I-4
sg6
g10
saa(lp241
(dp242
g3
g39
sg5
I-1
sg6
g7
sa(dp243
g3
g12
sg5
I-2
sg6
g7
sa(dp244
g3
g4
sg5
I-3
sg6
g7
sa(dp245
g3
g30
sg5
I-4
sg6
g7
sa(dp246
g3
g21
sg5
I-3
sg6
g22
sa(dp247
g3
S'blank_pt-gd=?'
p248
sg5
I-4
sg6
g22
sa(dp249
g3
g50
sg5
I-1
sg6
g31
sa(dp250
g3
g48
sg5
I-1
sg6
g82
sa(dp251
g3
g52
sg5
I-1
sg6
g10
sa(dp252
g3
g75
sg5
I-2
sg6
g82
sa(dp253
g3
g9
sg5
I-3
sg6
g31
sa(dp254
g3
S'blank_0-N=N'
p255
sg5
I-4
sg6
g31
sa(dp256
g3
S'blank_correct_col'
p257
sg5
I-5
sg6
g31
sa(dp258
g3
g30
sg5
I-5
sg6
g13
saa(lp259
(dp260
g3
g39
sg5
I-1
sg6
g7
sa(dp261
g3
g12
sg5
I-2
sg6
g7
sa(dp262
g3
g48
sg5
I-1
sg6
g26
sa(dp263
g3
g50
sg5
I-1
sg6
g10
sa(dp264
g3
g52
sg5
I-1
sg6
g28
sa(dp265
g3
g75
sg5
I-2
sg6
g26
sa(dp266
g3
g54
sg5
I-2
sg6
S'40'
p267
sa(dp268
g3
g12
sg5
I-3
sg6
g82
saa(lp269
(dp270
g3
g4
sg5
I-2
sg6
g7
sa(dp271
g3
g30
sg5
I-3
sg6
g7
sa(dp272
g3
S'blank_pt-gd=0'
p273
sg5
I-4
sg6
g7
sa(dp274
g3
g21
sg5
I-2
sg6
g22
sa(dp275
g3
S'blank_pt-gd=?'
p276
sg5
I-3
sg6
g22
sa(dp277
g3
S'blank_pt-gd=?'
p278
sg5
I-4
sg6
g22
sa(dp279
g3
g12
sg5
I-1
sg6
g26
sa(dp280
g3
g9
sg5
I-2
sg6
g57
sa(dp281
g3
S'blank_0-N=N'
p282
sg5
I-3
sg6
g57
sa(dp283
g3
g30
sg5
I-4
sg6
g26
sa(dp284
g3
S'blank_pt-gd=gd'
p285
sg5
I-4
sg6
g57
saa(lp286
(dp287
g3
g39
sg5
I-1
sg6
g7
sa(dp288
g3
g12
sg5
I-2
sg6
g7
sa(dp289
g3
g50
sg5
I-1
sg6
g31
sa(dp290
g3
g48
sg5
I-1
sg6
g26
sa(dp291
g3
g52
sg5
I-1
sg6
g82
sa(dp292
g3
g54
sg5
I-2
sg6
S'40'
p293
sa(dp294
g3
g12
sg5
I-3
sg6
g82
saa(lp295
(dp296
g3
g12
sg5
I-1
sg6
g7
sa(dp297
g3
g16
sg5
I-2
sg6
g7
sa(dp298
g3
g75
sg5
I-1
sg6
g57
sa(dp299
g3
g54
sg5
I-1
sg6
S'90'
p300
sa(dp301
g3
g12
sg5
I-2
sg6
g157
sa(dp302
g3
g12
sg5
I-3
sg6
g13
sa(dp303
g3
g54
sg5
I-2
sg6
S'29'
p304
saa.