(lp0
(lp1
(dp2
S'type'
p3
S'pt-gd=0Z'
p4
sS'pos'
p5
I-1
sS'result'
p6
S'0'
p7
sa(dp8
g3
S'pt-gd=ptZ'
p9
sg5
I-1
sg6
g7
sa(dp10
g3
S'0-N=0'
p11
sg5
I-1
sg6
g7
sa(dp12
g3
S'gd-ptZ'
p13
sg5
I-1
sg6
S'5'
p14
sa(dp15
g3
S'pt-gd=gdZ'
p16
sg5
I-1
sg6
g14
sa(dp17
g3
S'0-N=N'
p18
sg5
I-1
sg6
g14
sa(dp19
g3
S'correct_col'
p20
sg5
I-2
sg6
S'2'
p21
saa(lp22
(dp23
g3
S'N-0=0'
p24
sg5
I-1
sg6
g7
sa(dp25
g3
g4
sg5
I-2
sg6
g7
sa(dp26
g3
g9
sg5
I-2
sg6
g7
sa(dp27
g3
g11
sg5
I-2
sg6
g7
sa(dp28
g3
S'blank_pt-gd=0'
p29
sg5
I-3
sg6
g7
sa(dp30
g3
S'pt-gd=?'
p31
sg5
I-2
sg6
S'X'
p32
sa(dp33
g3
S'blank_pt-gd=?'
p34
sg5
I-3
sg6
g32
sa(dp35
g3
g20
sg5
I-1
sg6
S'3'
p36
sa(dp37
g3
g13
sg5
I-2
sg6
S'8'
p38
sa(dp39
g3
g16
sg5
I-2
sg6
g38
sa(dp40
g3
g18
sg5
I-2
sg6
g38
sa(dp41
g3
S'copy'
p42
sg5
I-3
sg6
S'1'
p43
sa(dp44
g3
S'blank_gd-pt'
p45
sg5
I-3
sg6
S'7'
p46
sa(dp47
g3
S'blank_pt-gd=gd'
p48
sg5
I-3
sg6
g38
saa(lp49
(dp50
g3
S'pt-gd=0'
p51
sg5
I-1
sg6
g7
sa(dp52
g3
g24
sg5
I-2
sg6
g7
sa(dp53
g3
g4
sg5
I-3
sg6
g7
sa(dp54
g3
g9
sg5
I-3
sg6
g7
sa(dp55
g3
g11
sg5
I-3
sg6
g7
sa(dp56
g3
S'blank_pt-gd=0'
p57
sg5
I-4
sg6
g7
sa(dp58
g3
g31
sg5
I-3
sg6
g32
sa(dp59
g3
S'blank_pt-gd=?'
p60
sg5
I-4
sg6
g32
sa(dp61
g3
S'gd-pt'
p62
sg5
I-1
sg6
g21
sa(dp63
g3
S'pt-gd=pt'
p64
sg5
I-1
sg6
g36
sa(dp65
g3
S'pt-gd=gd'
p66
sg5
I-1
sg6
g14
sa(dp67
g3
S'incomplete'
p68
sg5
I-1
sg6
S'58'
p69
sa(dp70
g3
g20
sg5
I-2
sg6
S'6'
p71
sa(dp72
g3
g13
sg5
I-3
sg6
g38
sa(dp73
g3
g16
sg5
I-3
sg6
g38
sa(dp74
g3
g18
sg5
I-3
sg6
g38
sa(dp75
g3
g68
sg5
I-3
sg6
S'12'
p76
sa(dp77
g3
g42
sg5
I-4
sg6
g21
sa(dp78
g3
S'blank_gd-pt'
p79
sg5
I-4
sg6
g71
sa(dp80
g3
S'blank_pt-gd=gd'
p81
sg5
I-4
sg6
g38
saa(lp82
(dp83
g3
g51
sg5
I-1
sg6
g7
sa(dp84
g3
g20
sg5
I-2
sg6
g7
sa(dp85
g3
g51
sg5
I-3
sg6
g7
sa(dp86
g3
g31
sg5
I-3
sg6
g32
sa(dp87
g3
g62
sg5
I-1
sg6
g21
sa(dp88
g3
g64
sg5
I-1
sg6
g36
sa(dp89
g3
g66
sg5
I-1
sg6
g14
sa(dp90
g3
S'N-N=N'
p91
sg5
I-2
sg6
g71
sa(dp92
g3
g64
sg5
I-3
sg6
g36
sa(dp93
g3
g62
sg5
I-3
sg6
g14
sa(dp94
g3
g66
sg5
I-3
sg6
g38
sa(dp95
g3
g68
sg5
I-3
sg6
S'35'
p96
sa(dp97
g3
g20
sg5
I-4
sg6
S'4'
p98
saa(lp99
(dp100
g3
g51
sg5
I-1
sg6
g7
sa(dp101
g3
g4
sg5
I-2
sg6
g7
sa(dp102
g3
g9
sg5
I-2
sg6
g7
sa(dp103
g3
g11
sg5
I-2
sg6
g7
sa(dp104
g3
S'blank_pt-gd=0'
p105
sg5
I-3
sg6
g7
sa(dp106
g3
g31
sg5
I-2
sg6
g32
sa(dp107
g3
S'blank_pt-gd=?'
p108
sg5
I-3
sg6
g32
sa(dp109
g3
g62
sg5
I-1
sg6
g21
sa(dp110
g3
g64
sg5
I-1
sg6
g98
sa(dp111
g3
g66
sg5
I-1
sg6
g71
sa(dp112
g3
g13
sg5
I-2
sg6
g14
sa(dp113
g3
g16
sg5
I-2
sg6
g14
sa(dp114
g3
g18
sg5
I-2
sg6
g14
sa(dp115
g3
g42
sg5
I-3
sg6
g43
sa(dp116
g3
S'blank_gd-pt'
p117
sg5
I-3
sg6
g98
sa(dp118
g3
S'blank_pt-gd=gd'
p119
sg5
I-3
sg6
g14
saa(lp120
(dp121
g3
g51
sg5
I-1
sg6
g7
sa(dp122
g3
g4
sg5
I-2
sg6
g7
sa(dp123
g3
g9
sg5
I-2
sg6
g7
sa(dp124
g3
g11
sg5
I-2
sg6
g7
sa(dp125
g3
g42
sg5
I-3
sg6
g7
sa(dp126
g3
g31
sg5
I-2
sg6
g32
sa(dp127
g3
S'blank_pt-gd=?'
p128
sg5
I-3
sg6
g32
sa(dp129
g3
g62
sg5
I-1
sg6
g43
sa(dp130
g3
g64
sg5
I-1
sg6
g36
sa(dp131
g3
g66
sg5
I-1
sg6
g98
sa(dp132
g3
g13
sg5
I-2
sg6
g98
sa(dp133
g3
g16
sg5
I-2
sg6
g98
sa(dp134
g3
g18
sg5
I-2
sg6
g98
sa(dp135
g3
S'blank_gd-ptZ'
p136
sg5
I-3
sg6
g98
sa(dp137
g3
S'blank_pt-gd=gdZ'
p138
sg5
I-3
sg6
g98
sa(dp139
g3
S'blank_0-N=N'
p140
sg5
I-3
sg6
g98
sa(dp141
g3
S'blank_correct_col'
p142
sg5
I-4
sg6
g21
sa(dp143
g3
g42
sg5
I-4
sg6
g71
saa(lp144
(dp145
g3
g51
sg5
I-1
sg6
g7
sa(dp146
g3
g64
sg5
I-1
sg6
g43
sa(dp147
g3
g62
sg5
I-1
sg6
g36
sa(dp148
g3
g66
sg5
I-1
sg6
g98
sa(dp149
g3
S'blank_correct_col'
p150
sg5
I-2
sg6
g43
sa(dp151
g3
g68
sg5
I-1
sg6
S'47'
p152
sa(dp153
g3
g42
sg5
I-2
sg6
g14
sa(dp154
g3
S'blank_correct_col'
p155
sg5
I-3
sg6
g98
sa(dp156
g3
g42
sg5
I-3
sg6
g38
saa(lp157
(dp158
g3
g24
sg5
I-1
sg6
g7
sa(dp159
g3
g4
sg5
I-2
sg6
g7
sa(dp160
g3
g9
sg5
I-2
sg6
g7
sa(dp161
g3
g11
sg5
I-2
sg6
g7
sa(dp162
g3
g4
sg5
I-3
sg6
g7
sa(dp163
g3
g9
sg5
I-3
sg6
g7
sa(dp164
g3
g11
sg5
I-3
sg6
g7
sa(dp165
g3
g31
sg5
I-2
sg6
g32
sa(dp166
g3
g31
sg5
I-3
sg6
g32
sa(dp167
g3
g20
sg5
I-1
sg6
g14
sa(dp168
g3
g13
sg5
I-2
sg6
g38
sa(dp169
g3
g16
sg5
I-2
sg6
g38
sa(dp170
g3
g18
sg5
I-2
sg6
g38
sa(dp171
g3
g13
sg5
I-3
sg6
g46
sa(dp172
g3
g16
sg5
I-3
sg6
g46
sa(dp173
g3
g18
sg5
I-3
sg6
g46
sa(dp174
g3
g68
sg5
I-3
sg6
S'33'
p175
sa(dp176
g3
g20
sg5
I-4
sg6
g98
saa(lp177
(dp178
g3
g51
sg5
I-1
sg6
g7
sa(dp179
g3
g51
sg5
I-2
sg6
g7
sa(dp180
g3
g51
sg5
I-3
sg6
g7
sa(dp181
g3
S'blank_pt-gd=0'
p182
sg5
I-4
sg6
g7
sa(dp183
g3
g31
sg5
I-2
sg6
g32
sa(dp184
g3
g31
sg5
I-3
sg6
g32
sa(dp185
g3
S'blank_pt-gd=?'
p186
sg5
I-4
sg6
g32
sa(dp187
g3
g64
sg5
I-1
sg6
g21
sa(dp188
g3
g62
sg5
I-1
sg6
g71
sa(dp189
g3
g66
sg5
I-1
sg6
g38
sa(dp190
g3
g64
sg5
I-2
sg6
g36
sa(dp191
g3
g62
sg5
I-2
sg6
g71
sa(dp192
g3
g66
sg5
I-2
sg6
S'9'
p193
sa(dp194
g3
g64
sg5
I-3
sg6
g43
sa(dp195
g3
g62
sg5
I-3
sg6
g14
sa(dp196
g3
g66
sg5
I-3
sg6
g71
sa(dp197
g3
g42
sg5
I-4
sg6
g43
sa(dp198
g3
S'blank_gd-pt'
p199
sg5
I-4
sg6
g14
sa(dp200
g3
S'blank_pt-gd=gd'
p201
sg5
I-4
sg6
g71
saa(lp202
(dp203
g3
g20
sg5
I-2
sg6
g7
sa(dp204
g3
g20
sg5
I-1
sg6
g21
sa(dp205
g3
g91
sg5
I-2
sg6
g21
sa(dp206
g3
g68
sg5
I-1
sg6
S'02'
p207
sa(dp208
g3
S'blank_correct_col'
p209
sg5
I-3
sg6
g21
sa(dp210
g3
g68
sg5
I-2
sg6
S'40'
p211
sa(dp212
g3
g42
sg5
I-3
sg6
g98
saa(lp213
(dp214
g3
g51
sg5
I-1
sg6
g7
sa(dp215
g3
g62
sg5
I-1
sg6
g43
sa(dp216
g3
g64
sg5
I-1
sg6
g36
sa(dp217
g3
g66
sg5
I-1
sg6
g98
sa(dp218
g3
g68
sg5
I-1
sg6
S'39'
p219
sa(dp220
g3
g20
sg5
I-2
sg6
g98
sa(dp221
g3
g20
sg5
I-3
sg6
g43
sa(dp222
g3
g68
sg5
I-2
sg6
S'14'
p223
saa(lp224
(dp225
g3
g51
sg5
I-1
sg6
g7
sa(dp226
g3
g62
sg5
I-1
sg6
g21
sa(dp227
g3
g64
sg5
I-1
sg6
g98
sa(dp228
g3
g66
sg5
I-1
sg6
g71
sa(dp229
g3
g20
sg5
I-2
sg6
g98
saa(lp230
(dp231
g3
g51
sg5
I-1
sg6
g7
sa(dp232
g3
g20
sg5
I-2
sg6
g7
sa(dp233
g3
S'blank_pt-gd=0'
p234
sg5
I-4
sg6
g7
sa(dp235
g3
S'blank_pt-gd=?'
p236
sg5
I-4
sg6
g32
sa(dp237
g3
g64
sg5
I-1
sg6
g21
sa(dp238
g3
g62
sg5
I-1
sg6
g36
sa(dp239
g3
g66
sg5
I-1
sg6
g14
sa(dp240
g3
g91
sg5
I-2
sg6
g21
sa(dp241
g3
g68
sg5
I-2
sg6
S'70'
p242
sa(dp243
g3
g20
sg5
I-3
sg6
g46
sa(dp244
g3
g42
sg5
I-4
sg6
g43
sa(dp245
g3
g68
sg5
I-3
sg6
S'17'
p246
sa(dp247
g3
S'blank_pt-gd=gd'
p248
sg5
I-4
sg6
g21
saa(lp249
(dp250
g3
g51
sg5
I-1
sg6
g7
sa(dp251
g3
g51
sg5
I-2
sg6
g7
sa(dp252
g3
g31
sg5
I-2
sg6
g32
sa(dp253
g3
g64
sg5
I-1
sg6
g98
sa(dp254
g3
g62
sg5
I-1
sg6
g14
sa(dp255
g3
g66
sg5
I-1
sg6
g193
sa(dp256
g3
g64
sg5
I-2
sg6
g36
sa(dp257
g3
g62
sg5
I-2
sg6
g98
sa(dp258
g3
g66
sg5
I-2
sg6
g46
sa(dp259
g3
g68
sg5
I-2
sg6
S'16'
p260
sa(dp261
g3
g20
sg5
I-3
sg6
g21
saa(lp262
(dp263
g3
g42
sg5
I-3
sg6
g7
sa(dp264
g3
S'blank_pt-gd=?'
p265
sg5
I-3
sg6
g32
sa(dp266
g3
g20
sg5
I-1
sg6
g14
sa(dp267
g3
S'blank_correct_col'
p268
sg5
I-2
sg6
g36
sa(dp269
g3
g42
sg5
I-2
sg6
g71
sa(dp270
g3
g68
sg5
I-1
sg6
S'65'
p271
sa(dp272
g3
S'blank_gd-ptZ'
p273
sg5
I-3
sg6
g36
sa(dp274
g3
S'blank_pt-gd=gdZ'
p275
sg5
I-3
sg6
g36
sa(dp276
g3
S'blank_0-N=N'
p277
sg5
I-3
sg6
g36
sa(dp278
g3
S'blank_correct_col'
p279
sg5
I-4
sg6
g21
sa(dp280
g3
g42
sg5
I-4
sg6
g14
saa(lp281
(dp282
g3
g51
sg5
I-1
sg6
g7
sa(dp283
g3
g20
sg5
I-2
sg6
g7
sa(dp284
g3
g4
sg5
I-3
sg6
g7
sa(dp285
g3
g9
sg5
I-3
sg6
g7
sa(dp286
g3
g11
sg5
I-3
sg6
g7
sa(dp287
g3
g42
sg5
I-4
sg6
g7
sa(dp288
g3
g31
sg5
I-3
sg6
g32
sa(dp289
g3
S'blank_pt-gd=?'
p290
sg5
I-4
sg6
g32
sa(dp291
g3
g64
sg5
I-1
sg6
g43
sa(dp292
g3
g62
sg5
I-1
sg6
g98
sa(dp293
g3
g66
sg5
I-1
sg6
g14
sa(dp294
g3
g91
sg5
I-2
sg6
g98
sa(dp295
g3
g13
sg5
I-3
sg6
g43
sa(dp296
g3
g16
sg5
I-3
sg6
g43
sa(dp297
g3
g18
sg5
I-3
sg6
g43
sa(dp298
g3
S'blank_gd-ptZ'
p299
sg5
I-4
sg6
g43
sa(dp300
g3
S'blank_pt-gd=gdZ'
p301
sg5
I-4
sg6
g43
sa(dp302
g3
S'blank_0-N=N'
p303
sg5
I-4
sg6
g43
sa(dp304
g3
S'blank_correct_col'
p305
sg5
I-5
sg6
g43
sa(dp306
g3
g42
sg5
I-5
sg6
g21
saa(lp307
(dp308
g3
g51
sg5
I-1
sg6
g7
sa(dp309
g3
g20
sg5
I-2
sg6
g7
sa(dp310
g3
g62
sg5
I-1
sg6
g36
sa(dp311
g3
g64
sg5
I-1
sg6
g14
sa(dp312
g3
g66
sg5
I-1
sg6
g38
sa(dp313
g3
g91
sg5
I-2
sg6
g36
sa(dp314
g3
g68
sg5
I-2
sg6
S'40'
p315
sa(dp316
g3
g20
sg5
I-3
sg6
g98
saa(lp317
(dp318
g3
g4
sg5
I-2
sg6
g7
sa(dp319
g3
g9
sg5
I-2
sg6
g7
sa(dp320
g3
g11
sg5
I-2
sg6
g7
sa(dp321
g3
g42
sg5
I-3
sg6
g7
sa(dp322
g3
S'blank_pt-gd=0'
p323
sg5
I-4
sg6
g7
sa(dp324
g3
g31
sg5
I-2
sg6
g32
sa(dp325
g3
S'blank_pt-gd=?'
p326
sg5
I-3
sg6
g32
sa(dp327
g3
S'blank_pt-gd=?'
p328
sg5
I-4
sg6
g32
sa(dp329
g3
g20
sg5
I-1
sg6
g36
sa(dp330
g3
g13
sg5
I-2
sg6
g71
sa(dp331
g3
g16
sg5
I-2
sg6
g71
sa(dp332
g3
g18
sg5
I-2
sg6
g71
sa(dp333
g3
S'blank_gd-ptZ'
p334
sg5
I-3
sg6
g71
sa(dp335
g3
S'blank_pt-gd=gdZ'
p336
sg5
I-3
sg6
g71
sa(dp337
g3
S'blank_0-N=N'
p338
sg5
I-3
sg6
g71
sa(dp339
g3
g42
sg5
I-4
sg6
g36
sa(dp340
g3
S'blank_pt-gd=gd'
p341
sg5
I-4
sg6
g71
saa(lp342
(dp343
g3
g51
sg5
I-1
sg6
g7
sa(dp344
g3
g20
sg5
I-2
sg6
g7
sa(dp345
g3
g64
sg5
I-1
sg6
g43
sa(dp346
g3
g62
sg5
I-1
sg6
g36
sa(dp347
g3
g66
sg5
I-1
sg6
g98
sa(dp348
g3
g68
sg5
I-2
sg6
S'40'
p349
sa(dp350
g3
g20
sg5
I-3
sg6
g98
saa(lp351
(dp352
g3
g20
sg5
I-1
sg6
g7
sa(dp353
g3
g24
sg5
I-2
sg6
g7
sa(dp354
g3
g91
sg5
I-1
sg6
g71
sa(dp355
g3
g68
sg5
I-1
sg6
S'90'
p356
sa(dp357
g3
g20
sg5
I-2
sg6
g193
sa(dp358
g3
g20
sg5
I-3
sg6
g21
sa(dp359
g3
g68
sg5
I-2
sg6
S'29'
p360
saa.