(lp0
(lp1
(dp2
S'type'
p3
S'pt-gd=0'
p4
sS'pos'
p5
I-1
sS'result'
p6
S'0'
p7
sa(dp8
g3
S'pt-gd=pt'
p9
sg5
I-1
sg6
g7
sa(dp10
g3
S'0-N=0'
p11
sg5
I-1
sg6
g7
sa(dp12
g3
S'gd-pt'
p13
sg5
I-1
sg6
S'5'
p14
sa(dp15
g3
S'pt-gd=gd'
p16
sg5
I-1
sg6
g14
sa(dp17
g3
S'0-N=N'
p18
sg5
I-1
sg6
g14
sa(dp19
g3
S'correct_col'
p20
sg5
I-2
sg6
S'2'
p21
saa(lp22
(dp23
g3
S'N-0=0'
p24
sg5
I-1
sg6
g7
sa(dp25
g3
g4
sg5
I-2
sg6
g7
sa(dp26
g3
g9
sg5
I-2
sg6
g7
sa(dp27
g3
g11
sg5
I-2
sg6
g7
sa(dp28
g3
S'blank_pt-gd=0'
p29
sg5
I-3
sg6
g7
sa(dp30
g3
S'pt-gd=?'
p31
sg5
I-2
sg6
S'X'
p32
sa(dp33
g3
S'blank_pt-gd=?'
p34
sg5
I-3
sg6
g32
sa(dp35
g3
g20
sg5
I-1
sg6
S'3'
p36
sa(dp37
g3
g13
sg5
I-2
sg6
S'8'
p38
sa(dp39
g3
g16
sg5
I-2
sg6
g38
sa(dp40
g3
g18
sg5
I-2
sg6
g38
sa(dp41
g3
S'copy'
p42
sg5
I-3
sg6
S'1'
p43
sa(dp44
g3
S'blank_gd-pt'
p45
sg5
I-3
sg6
S'7'
p46
sa(dp47
g3
S'blank_pt-gd=gd'
p48
sg5
I-3
sg6
g38
saa(lp49
(dp50
g3
g4
sg5
I-1
sg6
g7
sa(dp51
g3
g24
sg5
I-2
sg6
g7
sa(dp52
g3
g4
sg5
I-3
sg6
g7
sa(dp53
g3
g9
sg5
I-3
sg6
g7
sa(dp54
g3
g11
sg5
I-3
sg6
g7
sa(dp55
g3
S'blank_pt-gd=0'
p56
sg5
I-4
sg6
g7
sa(dp57
g3
g31
sg5
I-3
sg6
g32
sa(dp58
g3
S'blank_pt-gd=?'
p59
sg5
I-4
sg6
g32
sa(dp60
g3
g13
sg5
I-1
sg6
g21
sa(dp61
g3
g9
sg5
I-1
sg6
g36
sa(dp62
g3
g16
sg5
I-1
sg6
g14
sa(dp63
g3
S'incomplete'
p64
sg5
I-1
sg6
S'58'
p65
sa(dp66
g3
g20
sg5
I-2
sg6
S'6'
p67
sa(dp68
g3
g13
sg5
I-3
sg6
g38
sa(dp69
g3
g16
sg5
I-3
sg6
g38
sa(dp70
g3
g18
sg5
I-3
sg6
g38
sa(dp71
g3
g64
sg5
I-3
sg6
S'12'
p72
sa(dp73
g3
g42
sg5
I-4
sg6
g21
sa(dp74
g3
S'blank_gd-pt'
p75
sg5
I-4
sg6
g67
sa(dp76
g3
S'blank_pt-gd=gd'
p77
sg5
I-4
sg6
g38
saa(lp78
(dp79
g3
g4
sg5
I-1
sg6
g7
sa(dp80
g3
g20
sg5
I-2
sg6
g7
sa(dp81
g3
g4
sg5
I-3
sg6
g7
sa(dp82
g3
g31
sg5
I-3
sg6
g32
sa(dp83
g3
g13
sg5
I-1
sg6
g21
sa(dp84
g3
g9
sg5
I-1
sg6
g36
sa(dp85
g3
g16
sg5
I-1
sg6
g14
sa(dp86
g3
S'N-N=N'
p87
sg5
I-2
sg6
g67
sa(dp88
g3
g9
sg5
I-3
sg6
g36
sa(dp89
g3
g13
sg5
I-3
sg6
g14
sa(dp90
g3
g16
sg5
I-3
sg6
g38
sa(dp91
g3
g64
sg5
I-3
sg6
S'35'
p92
sa(dp93
g3
g20
sg5
I-4
sg6
S'4'
p94
saa(lp95
(dp96
g3
g4
sg5
I-1
sg6
g7
sa(dp97
g3
g4
sg5
I-2
sg6
g7
sa(dp98
g3
g9
sg5
I-2
sg6
g7
sa(dp99
g3
g11
sg5
I-2
sg6
g7
sa(dp100
g3
S'blank_pt-gd=0'
p101
sg5
I-3
sg6
g7
sa(dp102
g3
g31
sg5
I-2
sg6
g32
sa(dp103
g3
S'blank_pt-gd=?'
p104
sg5
I-3
sg6
g32
sa(dp105
g3
g13
sg5
I-1
sg6
g21
sa(dp106
g3
g9
sg5
I-1
sg6
g94
sa(dp107
g3
g16
sg5
I-1
sg6
g67
sa(dp108
g3
g13
sg5
I-2
sg6
g14
sa(dp109
g3
g16
sg5
I-2
sg6
g14
sa(dp110
g3
g18
sg5
I-2
sg6
g14
sa(dp111
g3
g42
sg5
I-3
sg6
g43
sa(dp112
g3
S'blank_gd-pt'
p113
sg5
I-3
sg6
g94
sa(dp114
g3
S'blank_pt-gd=gd'
p115
sg5
I-3
sg6
g14
saa(lp116
(dp117
g3
g4
sg5
I-1
sg6
g7
sa(dp118
g3
g4
sg5
I-2
sg6
g7
sa(dp119
g3
g9
sg5
I-2
sg6
g7
sa(dp120
g3
g11
sg5
I-2
sg6
g7
sa(dp121
g3
g42
sg5
I-3
sg6
g7
sa(dp122
g3
g31
sg5
I-2
sg6
g32
sa(dp123
g3
S'blank_pt-gd=?'
p124
sg5
I-3
sg6
g32
sa(dp125
g3
g13
sg5
I-1
sg6
g43
sa(dp126
g3
g9
sg5
I-1
sg6
g36
sa(dp127
g3
g16
sg5
I-1
sg6
g94
sa(dp128
g3
g13
sg5
I-2
sg6
g94
sa(dp129
g3
g16
sg5
I-2
sg6
g94
sa(dp130
g3
g18
sg5
I-2
sg6
g94
sa(dp131
g3
S'blank_gd-pt'
p132
sg5
I-3
sg6
g94
sa(dp133
g3
S'blank_pt-gd=gd'
p134
sg5
I-3
sg6
g94
sa(dp135
g3
S'blank_0-N=N'
p136
sg5
I-3
sg6
g94
sa(dp137
g3
S'blank_correct_col'
p138
sg5
I-4
sg6
g21
sa(dp139
g3
g42
sg5
I-4
sg6
g67
saa(lp140
(dp141
g3
g4
sg5
I-1
sg6
g7
sa(dp142
g3
g9
sg5
I-1
sg6
g43
sa(dp143
g3
g13
sg5
I-1
sg6
g36
sa(dp144
g3
g16
sg5
I-1
sg6
g94
sa(dp145
g3
S'blank_correct_col'
p146
sg5
I-2
sg6
g43
sa(dp147
g3
g64
sg5
I-1
sg6
S'47'
p148
sa(dp149
g3
g42
sg5
I-2
sg6
g14
sa(dp150
g3
S'blank_correct_col'
p151
sg5
I-3
sg6
g94
sa(dp152
g3
g42
sg5
I-3
sg6
g38
saa(lp153
(dp154
g3
g24
sg5
I-1
sg6
g7
sa(dp155
g3
g4
sg5
I-2
sg6
g7
sa(dp156
g3
g9
sg5
I-2
sg6
g7
sa(dp157
g3
g11
sg5
I-2
sg6
g7
sa(dp158
g3
g4
sg5
I-3
sg6
g7
sa(dp159
g3
g9
sg5
I-3
sg6
g7
sa(dp160
g3
g11
sg5
I-3
sg6
g7
sa(dp161
g3
g31
sg5
I-2
sg6
g32
sa(dp162
g3
g31
sg5
I-3
sg6
g32
sa(dp163
g3
g20
sg5
I-1
sg6
g14
sa(dp164
g3
g13
sg5
I-2
sg6
g38
sa(dp165
g3
g16
sg5
I-2
sg6
g38
sa(dp166
g3
g18
sg5
I-2
sg6
g38
sa(dp167
g3
g13
sg5
I-3
sg6
g46
sa(dp168
g3
g16
sg5
I-3
sg6
g46
sa(dp169
g3
g18
sg5
I-3
sg6
g46
sa(dp170
g3
g64
sg5
I-3
sg6
S'33'
p171
sa(dp172
g3
g20
sg5
I-4
sg6
g94
saa(lp173
(dp174
g3
g4
sg5
I-1
sg6
g7
sa(dp175
g3
g4
sg5
I-2
sg6
g7
sa(dp176
g3
g4
sg5
I-3
sg6
g7
sa(dp177
g3
S'blank_pt-gd=0'
p178
sg5
I-4
sg6
g7
sa(dp179
g3
g31
sg5
I-2
sg6
g32
sa(dp180
g3
g31
sg5
I-3
sg6
g32
sa(dp181
g3
S'blank_pt-gd=?'
p182
sg5
I-4
sg6
g32
sa(dp183
g3
g9
sg5
I-1
sg6
g21
sa(dp184
g3
g13
sg5
I-1
sg6
g67
sa(dp185
g3
g16
sg5
I-1
sg6
g38
sa(dp186
g3
g9
sg5
I-2
sg6
g36
sa(dp187
g3
g13
sg5
I-2
sg6
g67
sa(dp188
g3
g16
sg5
I-2
sg6
S'9'
p189
sa(dp190
g3
g9
sg5
I-3
sg6
g43
sa(dp191
g3
g13
sg5
I-3
sg6
g14
sa(dp192
g3
g16
sg5
I-3
sg6
g67
sa(dp193
g3
g42
sg5
I-4
sg6
g43
sa(dp194
g3
S'blank_gd-pt'
p195
sg5
I-4
sg6
g14
sa(dp196
g3
S'blank_pt-gd=gd'
p197
sg5
I-4
sg6
g67
saa(lp198
(dp199
g3
g20
sg5
I-2
sg6
g7
sa(dp200
g3
g20
sg5
I-1
sg6
g21
sa(dp201
g3
g87
sg5
I-2
sg6
g21
sa(dp202
g3
g64
sg5
I-1
sg6
S'02'
p203
sa(dp204
g3
S'blank_correct_col'
p205
sg5
I-3
sg6
g21
sa(dp206
g3
g64
sg5
I-2
sg6
S'40'
p207
sa(dp208
g3
g42
sg5
I-3
sg6
g94
saa(lp209
(dp210
g3
g4
sg5
I-1
sg6
g7
sa(dp211
g3
g13
sg5
I-1
sg6
g43
sa(dp212
g3
g9
sg5
I-1
sg6
g36
sa(dp213
g3
g16
sg5
I-1
sg6
g94
sa(dp214
g3
g64
sg5
I-1
sg6
S'39'
p215
sa(dp216
g3
g20
sg5
I-2
sg6
g94
sa(dp217
g3
g20
sg5
I-3
sg6
g43
sa(dp218
g3
g64
sg5
I-2
sg6
S'14'
p219
saa(lp220
(dp221
g3
g4
sg5
I-1
sg6
g7
sa(dp222
g3
g13
sg5
I-1
sg6
g21
sa(dp223
g3
g9
sg5
I-1
sg6
g94
sa(dp224
g3
g16
sg5
I-1
sg6
g67
sa(dp225
g3
g20
sg5
I-2
sg6
g94
saa(lp226
(dp227
g3
g4
sg5
I-1
sg6
g7
sa(dp228
g3
g20
sg5
I-2
sg6
g7
sa(dp229
g3
S'blank_pt-gd=0'
p230
sg5
I-4
sg6
g7
sa(dp231
g3
S'blank_pt-gd=?'
p232
sg5
I-4
sg6
g32
sa(dp233
g3
g9
sg5
I-1
sg6
g21
sa(dp234
g3
g13
sg5
I-1
sg6
g36
sa(dp235
g3
g16
sg5
I-1
sg6
g14
sa(dp236
g3
g87
sg5
I-2
sg6
g21
sa(dp237
g3
g64
sg5
I-2
sg6
S'70'
p238
sa(dp239
g3
g20
sg5
I-3
sg6
g46
sa(dp240
g3
g42
sg5
I-4
sg6
g43
sa(dp241
g3
g64
sg5
I-3
sg6
S'17'
p242
sa(dp243
g3
S'blank_pt-gd=gd'
p244
sg5
I-4
sg6
g21
saa(lp245
(dp246
g3
g4
sg5
I-1
sg6
g7
sa(dp247
g3
g4
sg5
I-2
sg6
g7
sa(dp248
g3
g31
sg5
I-2
sg6
g32
sa(dp249
g3
g9
sg5
I-1
sg6
g94
sa(dp250
g3
g13
sg5
I-1
sg6
g14
sa(dp251
g3
g16
sg5
I-1
sg6
g189
sa(dp252
g3
g9
sg5
I-2
sg6
g36
sa(dp253
g3
g13
sg5
I-2
sg6
g94
sa(dp254
g3
g16
sg5
I-2
sg6
g46
sa(dp255
g3
g64
sg5
I-2
sg6
S'16'
p256
sa(dp257
g3
g20
sg5
I-3
sg6
g21
saa(lp258
(dp259
g3
g42
sg5
I-3
sg6
g7
sa(dp260
g3
S'blank_pt-gd=?'
p261
sg5
I-3
sg6
g32
sa(dp262
g3
g20
sg5
I-1
sg6
g14
sa(dp263
g3
S'blank_correct_col'
p264
sg5
I-2
sg6
g36
sa(dp265
g3
g42
sg5
I-2
sg6
g67
sa(dp266
g3
g64
sg5
I-1
sg6
S'65'
p267
sa(dp268
g3
S'blank_gd-pt'
p269
sg5
I-3
sg6
g36
sa(dp270
g3
S'blank_pt-gd=gd'
p271
sg5
I-3
sg6
g36
sa(dp272
g3
S'blank_0-N=N'
p273
sg5
I-3
sg6
g36
sa(dp274
g3
S'blank_correct_col'
p275
sg5
I-4
sg6
g21
sa(dp276
g3
g42
sg5
I-4
sg6
g14
saa(lp277
(dp278
g3
g4
sg5
I-1
sg6
g7
sa(dp279
g3
g20
sg5
I-2
sg6
g7
sa(dp280
g3
g4
sg5
I-3
sg6
g7
sa(dp281
g3
g9
sg5
I-3
sg6
g7
sa(dp282
g3
g11
sg5
I-3
sg6
g7
sa(dp283
g3
g42
sg5
I-4
sg6
g7
sa(dp284
g3
g31
sg5
I-3
sg6
g32
sa(dp285
g3
S'blank_pt-gd=?'
p286
sg5
I-4
sg6
g32
sa(dp287
g3
g9
sg5
I-1
sg6
g43
sa(dp288
g3
g13
sg5
I-1
sg6
g94
sa(dp289
g3
g16
sg5
I-1
sg6
g14
sa(dp290
g3
g87
sg5
I-2
sg6
g94
sa(dp291
g3
g13
sg5
I-3
sg6
g43
sa(dp292
g3
g16
sg5
I-3
sg6
g43
sa(dp293
g3
g18
sg5
I-3
sg6
g43
sa(dp294
g3
S'blank_gd-pt'
p295
sg5
I-4
sg6
g43
sa(dp296
g3
S'blank_pt-gd=gd'
p297
sg5
I-4
sg6
g43
sa(dp298
g3
S'blank_0-N=N'
p299
sg5
I-4
sg6
g43
sa(dp300
g3
S'blank_correct_col'
p301
sg5
I-5
sg6
g43
sa(dp302
g3
g42
sg5
I-5
sg6
g21
saa(lp303
(dp304
g3
g4
sg5
I-1
sg6
g7
sa(dp305
g3
g20
sg5
I-2
sg6
g7
sa(dp306
g3
g13
sg5
I-1
sg6
g36
sa(dp307
g3
g9
sg5
I-1
sg6
g14
sa(dp308
g3
g16
sg5
I-1
sg6
g38
sa(dp309
g3
g87
sg5
I-2
sg6
g36
sa(dp310
g3
g64
sg5
I-2
sg6
S'40'
p311
sa(dp312
g3
g20
sg5
I-3
sg6
g94
saa(lp313
(dp314
g3
g4
sg5
I-2
sg6
g7
sa(dp315
g3
g9
sg5
I-2
sg6
g7
sa(dp316
g3
g11
sg5
I-2
sg6
g7
sa(dp317
g3
g42
sg5
I-3
sg6
g7
sa(dp318
g3
S'blank_pt-gd=0'
p319
sg5
I-4
sg6
g7
sa(dp320
g3
g31
sg5
I-2
sg6
g32
sa(dp321
g3
S'blank_pt-gd=?'
p322
sg5
I-3
sg6
g32
sa(dp323
g3
S'blank_pt-gd=?'
p324
sg5
I-4
sg6
g32
sa(dp325
g3
g20
sg5
I-1
sg6
g36
sa(dp326
g3
g13
sg5
I-2
sg6
g67
sa(dp327
g3
g16
sg5
I-2
sg6
g67
sa(dp328
g3
g18
sg5
I-2
sg6
g67
sa(dp329
g3
S'blank_gd-pt'
p330
sg5
I-3
sg6
g67
sa(dp331
g3
S'blank_pt-gd=gd'
p332
sg5
I-3
sg6
g67
sa(dp333
g3
S'blank_0-N=N'
p334
sg5
I-3
sg6
g67
sa(dp335
g3
g42
sg5
I-4
sg6
g36
sa(dp336
g3
S'blank_pt-gd=gd'
p337
sg5
I-4
sg6
g67
saa(lp338
(dp339
g3
g4
sg5
I-1
sg6
g7
sa(dp340
g3
g20
sg5
I-2
sg6
g7
sa(dp341
g3
g9
sg5
I-1
sg6
g43
sa(dp342
g3
g13
sg5
I-1
sg6
g36
sa(dp343
g3
g16
sg5
I-1
sg6
g94
sa(dp344
g3
g64
sg5
I-2
sg6
S'40'
p345
sa(dp346
g3
g20
sg5
I-3
sg6
g94
saa(lp347
(dp348
g3
g20
sg5
I-1
sg6
g7
sa(dp349
g3
g24
sg5
I-2
sg6
g7
sa(dp350
g3
g87
sg5
I-1
sg6
g67
sa(dp351
g3
g64
sg5
I-1
sg6
S'90'
p352
sa(dp353
g3
g20
sg5
I-2
sg6
g189
sa(dp354
g3
g20
sg5
I-3
sg6
g21
sa(dp355
g3
g64
sg5
I-2
sg6
S'29'
p356
saa.