(lp0
(lp1
(dp2
S'type'
p3
S'correct_col'
p4
sS'pos'
p5
I-1
sS'result'
p6
S'2'
p7
sa(dp8
g3
S'N-N=N'
p9
sg5
I-2
sg6
S'4'
p10
sa(dp11
g3
g4
sg5
I-2
sg6
S'0'
p12
sa(dp13
g3
S'incomplete'
p14
sg5
I-1
sg6
S'02'
p15
sa(dp16
g3
S'blank_correct_col'
p17
sg5
I-3
sg6
g7
sa(dp18
g3
g14
sg5
I-2
sg6
S'60'
p19
sa(dp20
g3
S'copy'
p21
sg5
I-3
sg6
S'6'
p22
saa(lp23
(dp24
g3
g4
sg5
I-1
sg6
g12
sa(dp25
g3
g9
sg5
I-1
sg6
S'5'
p26
sa(dp27
g3
g14
sg5
I-1
sg6
S'80'
p28
sa(dp29
g3
g4
sg5
I-2
sg6
S'8'
p30
sa(dp31
g3
S'N-0=0'
p32
sg5
I-2
sg6
g12
sa(dp33
g3
g4
sg5
I-3
sg6
g22
sa(dp34
g3
g14
sg5
I-2
sg6
S'68'
p35
saa(lp36
(dp37
g3
S'pt-gd=0'
p38
sg5
I-1
sg6
g12
sa(dp39
g3
S'gd-pt'
p40
sg5
I-1
sg6
S'1'
p41
sa(dp42
g3
S'pt-gd=pt'
p43
sg5
I-1
sg6
S'3'
p44
sa(dp45
g3
S'pt-gd=gd'
p46
sg5
I-1
sg6
g10
sa(dp47
g3
g4
sg5
I-2
sg6
g10
saa(lp48
(dp49
g3
g4
sg5
I-1
sg6
g7
sa(dp50
g3
S'blank_0-N=N'
p51
sg5
I-2
sg6
g44
sa(dp52
g3
g21
sg5
I-2
sg6
g12
sa(dp53
g3
g14
sg5
I-1
sg6
S'02'
p54
sa(dp55
g3
g21
sg5
I-3
sg6
g44
sa(dp56
g3
S'blank_correct_col'
p57
sg5
I-3
sg6
g12
sa(dp58
g3
S'blank_correct_col'
p59
sg5
I-4
sg6
g26
sa(dp60
g3
g21
sg5
I-4
sg6
g30
saa(lp61
(dp62
g3
S'0-N=0'
p63
sg5
I-1
sg6
g12
sa(dp64
g3
S'0-N=N'
p65
sg5
I-1
sg6
g44
sa(dp66
g3
g4
sg5
I-2
sg6
g44
saa(lp67
(dp68
g3
g38
sg5
I-1
sg6
g12
sa(dp69
g3
g40
sg5
I-1
sg6
g41
sa(dp70
g3
g43
sg5
I-1
sg6
g7
sa(dp71
g3
g46
sg5
I-1
sg6
g44
sa(dp72
g3
S'blank_correct_col'
p73
sg5
I-2
sg6
g44
sa(dp74
g3
g14
sg5
I-1
sg6
S'59'
p75
sa(dp76
g3
g21
sg5
I-2
sg6
g22
sa(dp77
g3
S'blank_correct_col'
p78
sg5
I-3
sg6
g7
sa(dp79
g3
g21
sg5
I-3
sg6
g26
saa(lp80
(dp81
g3
g38
sg5
I-1
sg6
g12
sa(dp82
g3
g43
sg5
I-1
sg6
g7
sa(dp83
g3
g40
sg5
I-1
sg6
g10
sa(dp84
g3
g46
sg5
I-1
sg6
g22
sa(dp85
g3
g4
sg5
I-2
sg6
g41
sa(dp86
g3
g14
sg5
I-1
sg6
S'06'
p87
sa(dp88
g3
g4
sg5
I-3
sg6
g22
sa(dp89
g3
g14
sg5
I-2
sg6
S'61'
p90
saa(lp91
(dp92
g3
g32
sg5
I-1
sg6
g12
sa(dp93
g3
g4
sg5
I-1
sg6
g22
sa(dp94
g3
g65
sg5
I-2
sg6
S'7'
p95
sa(dp96
g3
g63
sg5
I-2
sg6
g12
sa(dp97
g3
g21
sg5
I-3
sg6
g41
sa(dp98
g3
S'blank_gd-pt'
p99
sg5
I-3
sg6
g22
sa(dp100
g3
S'blank_pt-gd=gd'
p101
sg5
I-3
sg6
g95
saa(lp102
(dp103
g3
g38
sg5
I-1
sg6
g12
sa(dp104
g3
g40
sg5
I-1
sg6
g7
sa(dp105
g3
g43
sg5
I-1
sg6
g22
sa(dp106
g3
g46
sg5
I-1
sg6
g30
sa(dp107
g3
g43
sg5
I-2
sg6
g41
sa(dp108
g3
g40
sg5
I-2
sg6
g30
sa(dp109
g3
g46
sg5
I-2
sg6
S'9'
p110
sa(dp111
g3
g38
sg5
I-2
sg6
g12
sa(dp112
g3
g14
sg5
I-2
sg6
S'12'
p113
sa(dp114
g3
g4
sg5
I-3
sg6
g7
saa(lp115
(dp116
g3
g38
sg5
I-1
sg6
g12
sa(dp117
g3
g40
sg5
I-1
sg6
g44
sa(dp118
g3
g43
sg5
I-1
sg6
g10
sa(dp119
g3
g46
sg5
I-1
sg6
g95
sa(dp120
g3
g40
sg5
I-2
sg6
g7
sa(dp121
g3
g43
sg5
I-2
sg6
g22
sa(dp122
g3
g46
sg5
I-2
sg6
g30
sa(dp123
g3
g38
sg5
I-2
sg6
g12
sa(dp124
g3
g40
sg5
I-3
sg6
g44
sa(dp125
g3
g43
sg5
I-3
sg6
g26
sa(dp126
g3
g46
sg5
I-3
sg6
g30
sa(dp127
g3
g38
sg5
I-3
sg6
g12
sa(dp128
g3
g21
sg5
I-4
sg6
g41
sa(dp129
g3
S'blank_gd-pt'
p130
sg5
I-4
sg6
g95
sa(dp131
g3
S'blank_pt-gd=gd'
p132
sg5
I-4
sg6
g30
saa(lp133
(dp134
g3
g38
sg5
I-1
sg6
g12
sa(dp135
g3
g43
sg5
I-1
sg6
g41
sa(dp136
g3
g40
sg5
I-1
sg6
g22
sa(dp137
g3
g46
sg5
I-1
sg6
g95
sa(dp138
g3
g9
sg5
I-2
sg6
g110
sa(dp139
g3
g4
sg5
I-2
sg6
g12
sa(dp140
g3
g40
sg5
I-3
sg6
g41
sa(dp141
g3
g43
sg5
I-3
sg6
g26
sa(dp142
g3
g46
sg5
I-3
sg6
g22
sa(dp143
g3
g38
sg5
I-3
sg6
g12
sa(dp144
g3
g14
sg5
I-3
sg6
S'39'
p145
sa(dp146
g3
g4
sg5
I-4
sg6
g10
saa(lp147
(dp148
g3
g38
sg5
I-1
sg6
g12
sa(dp149
g3
g43
sg5
I-1
sg6
g41
sa(dp150
g3
g40
sg5
I-1
sg6
g44
sa(dp151
g3
g46
sg5
I-1
sg6
g10
sa(dp152
g3
g9
sg5
I-2
sg6
g41
sa(dp153
g3
g14
sg5
I-2
sg6
S'10'
p154
sa(dp155
g3
g4
sg5
I-2
sg6
g12
sa(dp156
g3
g4
sg5
I-3
sg6
g41
saa(lp157
(dp158
g3
g38
sg5
I-1
sg6
g12
sa(dp159
g3
g40
sg5
I-1
sg6
g7
sa(dp160
g3
g43
sg5
I-1
sg6
g44
sa(dp161
g3
g46
sg5
I-1
sg6
g26
sa(dp162
g3
g9
sg5
I-2
sg6
g41
sa(dp163
g3
g4
sg5
I-2
sg6
g12
sa(dp164
g3
g14
sg5
I-2
sg6
S'60'
p165
sa(dp166
g3
g4
sg5
I-3
sg6
g22
sa(dp167
g3
g21
sg5
I-4
sg6
g41
sa(dp168
g3
g14
sg5
I-3
sg6
S'16'
p169
sa(dp170
g3
S'blank_pt-gd=gd'
p171
sg5
I-4
sg6
g7
saa(lp172
(dp173
g3
g38
sg5
I-1
sg6
g12
sa(dp174
g3
g43
sg5
I-1
sg6
g7
sa(dp175
g3
g40
sg5
I-1
sg6
g95
sa(dp176
g3
g46
sg5
I-1
sg6
g110
sa(dp177
g3
g65
sg5
I-2
sg6
g44
sa(dp178
g3
g63
sg5
I-2
sg6
g12
sa(dp179
g3
g21
sg5
I-3
sg6
g41
sa(dp180
g3
S'blank_gd-pt'
p181
sg5
I-3
sg6
g7
sa(dp182
g3
S'blank_pt-gd=gd'
p183
sg5
I-3
sg6
g44
saa(lp184
(dp185
g3
g32
sg5
I-1
sg6
g12
sa(dp186
g3
g4
sg5
I-1
sg6
g95
sa(dp187
g3
g65
sg5
I-2
sg6
g30
sa(dp188
g3
g63
sg5
I-2
sg6
g12
sa(dp189
g3
g65
sg5
I-3
sg6
g30
sa(dp190
g3
g63
sg5
I-3
sg6
g12
sa(dp191
g3
g14
sg5
I-3
sg6
S'22'
p192
sa(dp193
g3
g4
sg5
I-4
sg6
g44
saa(lp194
(dp195
g3
g38
sg5
I-1
sg6
g12
sa(dp196
g3
g40
sg5
I-1
sg6
g7
sa(dp197
g3
g43
sg5
I-1
sg6
g26
sa(dp198
g3
g46
sg5
I-1
sg6
g95
sa(dp199
g3
g4
sg5
I-2
sg6
g41
sa(dp200
g3
g32
sg5
I-2
sg6
g12
sa(dp201
g3
g14
sg5
I-1
sg6
S'08'
p202
sa(dp203
g3
g65
sg5
I-3
sg6
g22
sa(dp204
g3
g63
sg5
I-3
sg6
g12
sa(dp205
g3
S'blank_gd-pt'
p206
sg5
I-4
sg6
g7
sa(dp207
g3
g14
sg5
I-3
sg6
S'34'
p208
sa(dp209
g3
g21
sg5
I-4
sg6
g10
sa(dp210
g3
S'blank_pt-gd=gd'
p211
sg5
I-4
sg6
g22
saa(lp212
(dp213
g3
g38
sg5
I-1
sg6
g12
sa(dp214
g3
g43
sg5
I-1
sg6
g7
sa(dp215
g3
g40
sg5
I-1
sg6
g22
sa(dp216
g3
g46
sg5
I-1
sg6
g30
sa(dp217
g3
g4
sg5
I-2
sg6
g12
sa(dp218
g3
g14
sg5
I-2
sg6
S'60'
p219
sa(dp220
g3
g4
sg5
I-3
sg6
g22
saa(lp221
(dp222
g3
g4
sg5
I-1
sg6
g10
sa(dp223
g3
g65
sg5
I-2
sg6
g10
sa(dp224
g3
g63
sg5
I-2
sg6
g12
sa(dp225
g3
S'blank_0-N=N'
p226
sg5
I-3
sg6
g10
sa(dp227
g3
g21
sg5
I-3
sg6
g12
sa(dp228
g3
g21
sg5
I-4
sg6
g7
sa(dp229
g3
S'blank_pt-gd=gd'
p230
sg5
I-4
sg6
g10
saa(lp231
(dp232
g3
g38
sg5
I-1
sg6
g12
sa(dp233
g3
g40
sg5
I-1
sg6
g7
sa(dp234
g3
g43
sg5
I-1
sg6
g7
sa(dp235
g3
g46
sg5
I-1
sg6
g10
sa(dp236
g3
g9
sg5
I-2
sg6
g41
sa(dp237
g3
g4
sg5
I-2
sg6
g12
sa(dp238
g3
g65
sg5
I-3
sg6
g7
sa(dp239
g3
g63
sg5
I-3
sg6
g12
sa(dp240
g3
S'blank_0-N=N'
p241
sg5
I-4
sg6
g7
sa(dp242
g3
g21
sg5
I-4
sg6
g12
sa(dp243
g3
g21
sg5
I-5
sg6
g41
sa(dp244
g3
S'blank_pt-gd=gd'
p245
sg5
I-5
sg6
g7
saa(lp246
(dp247
g3
g38
sg5
I-1
sg6
g12
sa(dp248
g3
g43
sg5
I-1
sg6
g41
sa(dp249
g3
g40
sg5
I-1
sg6
g7
sa(dp250
g3
g46
sg5
I-1
sg6
g44
sa(dp251
g3
g65
sg5
I-2
sg6
g10
sa(dp252
g3
g63
sg5
I-2
sg6
g12
sa(dp253
g3
S'blank_0-N=N'
p254
sg5
I-3
sg6
g10
sa(dp255
g3
g21
sg5
I-3
sg6
g12
sa(dp256
g3
S'blank_correct_col'
p257
sg5
I-4
sg6
g10
sa(dp258
g3
g21
sg5
I-4
sg6
g30
saa.