(lp0
(lp1
(dp2
S'type'
p3
S'0-N=0'
p4
sS'pos'
p5
I-1
sS'result'
p6
S'0'
p7
sa(dp8
g3
S'0-N=N'
p9
sg5
I-1
sg6
S'5'
p10
sa(dp11
g3
S'correct_col'
p12
sg5
I-2
sg6
S'2'
p13
saa(lp14
(dp15
g3
S'N-0=0'
p16
sg5
I-1
sg6
g7
sa(dp17
g3
g12
sg5
I-1
sg6
S'3'
p18
sa(dp19
g3
g9
sg5
I-2
sg6
S'8'
p20
sa(dp21
g3
g4
sg5
I-2
sg6
g7
sa(dp22
g3
S'copy'
p23
sg5
I-3
sg6
S'1'
p24
sa(dp25
g3
S'blank_gd-pt'
p26
sg5
I-3
sg6
S'7'
p27
sa(dp28
g3
S'blank_pt-gd=gd'
p29
sg5
I-3
sg6
g20
saa(lp30
(dp31
g3
S'pt-gd=0'
p32
sg5
I-1
sg6
g7
sa(dp33
g3
S'gd-pt'
p34
sg5
I-1
sg6
g13
sa(dp35
g3
S'pt-gd=pt'
p36
sg5
I-1
sg6
g18
sa(dp37
g3
S'pt-gd=gd'
p38
sg5
I-1
sg6
g10
sa(dp39
g3
S'incomplete'
p40
sg5
I-1
sg6
S'58'
p41
sa(dp42
g3
g12
sg5
I-2
sg6
S'6'
p43
sa(dp44
g3
g16
sg5
I-2
sg6
g7
sa(dp45
g3
g9
sg5
I-3
sg6
g20
sa(dp46
g3
g4
sg5
I-3
sg6
g7
sa(dp47
g3
g40
sg5
I-3
sg6
S'12'
p48
sa(dp49
g3
g23
sg5
I-4
sg6
g13
sa(dp50
g3
S'blank_gd-pt'
p51
sg5
I-4
sg6
g43
sa(dp52
g3
S'blank_pt-gd=gd'
p53
sg5
I-4
sg6
g20
saa(lp54
(dp55
g3
g32
sg5
I-1
sg6
g7
sa(dp56
g3
g34
sg5
I-1
sg6
g13
sa(dp57
g3
g36
sg5
I-1
sg6
g18
sa(dp58
g3
g38
sg5
I-1
sg6
g10
sa(dp59
g3
S'N-N=N'
p60
sg5
I-2
sg6
g43
sa(dp61
g3
g12
sg5
I-2
sg6
g7
sa(dp62
g3
g36
sg5
I-3
sg6
g18
sa(dp63
g3
g34
sg5
I-3
sg6
g10
sa(dp64
g3
g38
sg5
I-3
sg6
g20
sa(dp65
g3
g32
sg5
I-3
sg6
g7
sa(dp66
g3
g40
sg5
I-3
sg6
S'35'
p67
sa(dp68
g3
g12
sg5
I-4
sg6
S'4'
p69
saa(lp70
(dp71
g3
g32
sg5
I-1
sg6
g7
sa(dp72
g3
g34
sg5
I-1
sg6
g13
sa(dp73
g3
g36
sg5
I-1
sg6
g69
sa(dp74
g3
g38
sg5
I-1
sg6
g43
sa(dp75
g3
g9
sg5
I-2
sg6
g10
sa(dp76
g3
g4
sg5
I-2
sg6
g7
sa(dp77
g3
g23
sg5
I-3
sg6
g24
sa(dp78
g3
S'blank_gd-pt'
p79
sg5
I-3
sg6
g69
sa(dp80
g3
S'blank_pt-gd=gd'
p81
sg5
I-3
sg6
g10
saa(lp82
(dp83
g3
g32
sg5
I-1
sg6
g7
sa(dp84
g3
g34
sg5
I-1
sg6
g24
sa(dp85
g3
g36
sg5
I-1
sg6
g18
sa(dp86
g3
g38
sg5
I-1
sg6
g69
sa(dp87
g3
g9
sg5
I-2
sg6
g69
sa(dp88
g3
g4
sg5
I-2
sg6
g7
sa(dp89
g3
S'blank_0-N=N'
p90
sg5
I-3
sg6
g69
sa(dp91
g3
g23
sg5
I-3
sg6
g7
sa(dp92
g3
S'blank_correct_col'
p93
sg5
I-4
sg6
g13
sa(dp94
g3
g23
sg5
I-4
sg6
g43
saa(lp95
(dp96
g3
g32
sg5
I-1
sg6
g7
sa(dp97
g3
g36
sg5
I-1
sg6
g24
sa(dp98
g3
g34
sg5
I-1
sg6
g18
sa(dp99
g3
g38
sg5
I-1
sg6
g69
sa(dp100
g3
S'blank_correct_col'
p101
sg5
I-2
sg6
g24
sa(dp102
g3
g40
sg5
I-1
sg6
S'47'
p103
sa(dp104
g3
g23
sg5
I-2
sg6
g10
sa(dp105
g3
S'blank_correct_col'
p106
sg5
I-3
sg6
g69
sa(dp107
g3
g23
sg5
I-3
sg6
g20
saa(lp108
(dp109
g3
g16
sg5
I-1
sg6
g7
sa(dp110
g3
g12
sg5
I-1
sg6
g10
sa(dp111
g3
g9
sg5
I-2
sg6
g20
sa(dp112
g3
g4
sg5
I-2
sg6
g7
sa(dp113
g3
g9
sg5
I-3
sg6
g27
sa(dp114
g3
g4
sg5
I-3
sg6
g7
sa(dp115
g3
g40
sg5
I-3
sg6
S'33'
p116
sa(dp117
g3
g12
sg5
I-4
sg6
g69
saa(lp118
(dp119
g3
g32
sg5
I-1
sg6
g7
sa(dp120
g3
g36
sg5
I-1
sg6
g13
sa(dp121
g3
g34
sg5
I-1
sg6
g43
sa(dp122
g3
g38
sg5
I-1
sg6
g20
sa(dp123
g3
g36
sg5
I-2
sg6
g18
sa(dp124
g3
g34
sg5
I-2
sg6
g43
sa(dp125
g3
g38
sg5
I-2
sg6
S'9'
p126
sa(dp127
g3
g32
sg5
I-2
sg6
g7
sa(dp128
g3
g36
sg5
I-3
sg6
g24
sa(dp129
g3
g34
sg5
I-3
sg6
g10
sa(dp130
g3
g38
sg5
I-3
sg6
g43
sa(dp131
g3
g32
sg5
I-3
sg6
g7
sa(dp132
g3
g23
sg5
I-4
sg6
g24
sa(dp133
g3
S'blank_gd-pt'
p134
sg5
I-4
sg6
g10
sa(dp135
g3
S'blank_pt-gd=gd'
p136
sg5
I-4
sg6
g43
saa(lp137
(dp138
g3
g12
sg5
I-1
sg6
g13
sa(dp139
g3
g60
sg5
I-2
sg6
g13
sa(dp140
g3
g12
sg5
I-2
sg6
g7
sa(dp141
g3
g40
sg5
I-1
sg6
S'02'
p142
sa(dp143
g3
S'blank_correct_col'
p144
sg5
I-3
sg6
g13
sa(dp145
g3
g40
sg5
I-2
sg6
S'40'
p146
sa(dp147
g3
g23
sg5
I-3
sg6
g69
saa(lp148
(dp149
g3
g32
sg5
I-1
sg6
g7
sa(dp150
g3
g34
sg5
I-1
sg6
g24
sa(dp151
g3
g36
sg5
I-1
sg6
g18
sa(dp152
g3
g38
sg5
I-1
sg6
g69
sa(dp153
g3
g40
sg5
I-1
sg6
S'39'
p154
sa(dp155
g3
g12
sg5
I-2
sg6
g69
sa(dp156
g3
g12
sg5
I-3
sg6
g24
sa(dp157
g3
g40
sg5
I-2
sg6
S'14'
p158
saa(lp159
(dp160
g3
g32
sg5
I-1
sg6
g7
sa(dp161
g3
g34
sg5
I-1
sg6
g13
sa(dp162
g3
g36
sg5
I-1
sg6
g69
sa(dp163
g3
g38
sg5
I-1
sg6
g43
sa(dp164
g3
g12
sg5
I-2
sg6
g69
saa(lp165
(dp166
g3
g32
sg5
I-1
sg6
g7
sa(dp167
g3
g36
sg5
I-1
sg6
g13
sa(dp168
g3
g34
sg5
I-1
sg6
g18
sa(dp169
g3
g38
sg5
I-1
sg6
g10
sa(dp170
g3
g60
sg5
I-2
sg6
g13
sa(dp171
g3
g12
sg5
I-2
sg6
g7
sa(dp172
g3
g40
sg5
I-2
sg6
S'70'
p173
sa(dp174
g3
g12
sg5
I-3
sg6
g27
sa(dp175
g3
g23
sg5
I-4
sg6
g24
sa(dp176
g3
g40
sg5
I-3
sg6
S'17'
p177
sa(dp178
g3
S'blank_pt-gd=gd'
p179
sg5
I-4
sg6
g13
saa(lp180
(dp181
g3
g32
sg5
I-1
sg6
g7
sa(dp182
g3
g36
sg5
I-1
sg6
g69
sa(dp183
g3
g34
sg5
I-1
sg6
g10
sa(dp184
g3
g38
sg5
I-1
sg6
g126
sa(dp185
g3
g36
sg5
I-2
sg6
g18
sa(dp186
g3
g34
sg5
I-2
sg6
g69
sa(dp187
g3
g38
sg5
I-2
sg6
g27
sa(dp188
g3
g32
sg5
I-2
sg6
g7
sa(dp189
g3
g40
sg5
I-2
sg6
S'16'
p190
sa(dp191
g3
g12
sg5
I-3
sg6
g13
saa(lp192
(dp193
g3
g12
sg5
I-1
sg6
g10
sa(dp194
g3
S'blank_correct_col'
p195
sg5
I-2
sg6
g18
sa(dp196
g3
g23
sg5
I-2
sg6
g43
sa(dp197
g3
g40
sg5
I-1
sg6
S'65'
p198
sa(dp199
g3
S'blank_0-N=N'
p200
sg5
I-3
sg6
g18
sa(dp201
g3
g23
sg5
I-3
sg6
g7
sa(dp202
g3
S'blank_correct_col'
p203
sg5
I-4
sg6
g13
sa(dp204
g3
g23
sg5
I-4
sg6
g10
saa(lp205
(dp206
g3
g32
sg5
I-1
sg6
g7
sa(dp207
g3
g36
sg5
I-1
sg6
g24
sa(dp208
g3
g34
sg5
I-1
sg6
g69
sa(dp209
g3
g38
sg5
I-1
sg6
g10
sa(dp210
g3
g60
sg5
I-2
sg6
g69
sa(dp211
g3
g12
sg5
I-2
sg6
g7
sa(dp212
g3
g9
sg5
I-3
sg6
g24
sa(dp213
g3
g4
sg5
I-3
sg6
g7
sa(dp214
g3
S'blank_0-N=N'
p215
sg5
I-4
sg6
g24
sa(dp216
g3
g23
sg5
I-4
sg6
g7
sa(dp217
g3
S'blank_correct_col'
p218
sg5
I-5
sg6
g24
sa(dp219
g3
g23
sg5
I-5
sg6
g13
saa(lp220
(dp221
g3
g32
sg5
I-1
sg6
g7
sa(dp222
g3
g34
sg5
I-1
sg6
g18
sa(dp223
g3
g36
sg5
I-1
sg6
g10
sa(dp224
g3
g38
sg5
I-1
sg6
g20
sa(dp225
g3
g60
sg5
I-2
sg6
g18
sa(dp226
g3
g12
sg5
I-2
sg6
g7
sa(dp227
g3
g40
sg5
I-2
sg6
S'40'
p228
sa(dp229
g3
g12
sg5
I-3
sg6
g69
saa(lp230
(dp231
g3
g12
sg5
I-1
sg6
g18
sa(dp232
g3
g9
sg5
I-2
sg6
g43
sa(dp233
g3
g4
sg5
I-2
sg6
g7
sa(dp234
g3
S'blank_0-N=N'
p235
sg5
I-3
sg6
g43
sa(dp236
g3
g23
sg5
I-3
sg6
g7
sa(dp237
g3
g23
sg5
I-4
sg6
g18
sa(dp238
g3
S'blank_pt-gd=gd'
p239
sg5
I-4
sg6
g43
saa(lp240
(dp241
g3
g32
sg5
I-1
sg6
g7
sa(dp242
g3
g36
sg5
I-1
sg6
g24
sa(dp243
g3
g34
sg5
I-1
sg6
g18
sa(dp244
g3
g38
sg5
I-1
sg6
g69
sa(dp245
g3
g12
sg5
I-2
sg6
g7
sa(dp246
g3
g40
sg5
I-2
sg6
S'40'
p247
sa(dp248
g3
g12
sg5
I-3
sg6
g69
saa(lp249
(dp250
g3
g12
sg5
I-1
sg6
g7
sa(dp251
g3
g60
sg5
I-1
sg6
g43
sa(dp252
g3
g40
sg5
I-1
sg6
S'90'
p253
sa(dp254
g3
g12
sg5
I-2
sg6
g126
sa(dp255
g3
g16
sg5
I-2
sg6
g7
sa(dp256
g3
g12
sg5
I-3
sg6
g13
sa(dp257
g3
g40
sg5
I-2
sg6
S'29'
p258
saa.