(lp0
(lp1
(dp2
S'type'
p3
S'0-N=0'
p4
sS'pos'
p5
I-1
sS'result'
p6
S'0'
p7
sa(dp8
g3
S'0-N=N'
p9
sg5
I-1
sg6
S'5'
p10
sa(dp11
g3
S'correct_col'
p12
sg5
I-2
sg6
S'2'
p13
saa(lp14
(dp15
g3
S'N-0=0'
p16
sg5
I-1
sg6
g7
sa(dp17
g3
g4
sg5
I-2
sg6
g7
sa(dp18
g3
S'blank_pt-gd=0'
p19
sg5
I-3
sg6
g7
sa(dp20
g3
g12
sg5
I-1
sg6
S'3'
p21
sa(dp22
g3
g9
sg5
I-2
sg6
S'8'
p23
sa(dp24
g3
S'copy'
p25
sg5
I-3
sg6
S'1'
p26
sa(dp27
g3
S'blank_gd-pt'
p28
sg5
I-3
sg6
S'7'
p29
sa(dp30
g3
S'blank_pt-gd=gd'
p31
sg5
I-3
sg6
g23
saa(lp32
(dp33
g3
S'pt-gd=0'
p34
sg5
I-1
sg6
g7
sa(dp35
g3
g16
sg5
I-2
sg6
g7
sa(dp36
g3
g4
sg5
I-3
sg6
g7
sa(dp37
g3
S'blank_pt-gd=0'
p38
sg5
I-4
sg6
g7
sa(dp39
g3
S'gd-pt'
p40
sg5
I-1
sg6
g13
sa(dp41
g3
S'pt-gd=pt'
p42
sg5
I-1
sg6
g21
sa(dp43
g3
S'pt-gd=gd'
p44
sg5
I-1
sg6
g10
sa(dp45
g3
S'incomplete'
p46
sg5
I-1
sg6
S'58'
p47
sa(dp48
g3
g12
sg5
I-2
sg6
S'6'
p49
sa(dp50
g3
g9
sg5
I-3
sg6
g23
sa(dp51
g3
g46
sg5
I-3
sg6
S'12'
p52
sa(dp53
g3
g25
sg5
I-4
sg6
g13
sa(dp54
g3
S'blank_gd-pt'
p55
sg5
I-4
sg6
g49
sa(dp56
g3
S'blank_pt-gd=gd'
p57
sg5
I-4
sg6
g23
saa(lp58
(dp59
g3
g34
sg5
I-1
sg6
g7
sa(dp60
g3
g12
sg5
I-2
sg6
g7
sa(dp61
g3
g34
sg5
I-3
sg6
g7
sa(dp62
g3
g40
sg5
I-1
sg6
g13
sa(dp63
g3
g42
sg5
I-1
sg6
g21
sa(dp64
g3
g44
sg5
I-1
sg6
g10
sa(dp65
g3
S'N-N=N'
p66
sg5
I-2
sg6
g49
sa(dp67
g3
g42
sg5
I-3
sg6
g21
sa(dp68
g3
g40
sg5
I-3
sg6
g10
sa(dp69
g3
g44
sg5
I-3
sg6
g23
sa(dp70
g3
g46
sg5
I-3
sg6
S'35'
p71
sa(dp72
g3
g12
sg5
I-4
sg6
S'4'
p73
saa(lp74
(dp75
g3
g34
sg5
I-1
sg6
g7
sa(dp76
g3
g4
sg5
I-2
sg6
g7
sa(dp77
g3
S'blank_pt-gd=0'
p78
sg5
I-3
sg6
g7
sa(dp79
g3
g40
sg5
I-1
sg6
g13
sa(dp80
g3
g42
sg5
I-1
sg6
g73
sa(dp81
g3
g44
sg5
I-1
sg6
g49
sa(dp82
g3
g9
sg5
I-2
sg6
g10
sa(dp83
g3
g25
sg5
I-3
sg6
g26
sa(dp84
g3
S'blank_gd-pt'
p85
sg5
I-3
sg6
g73
sa(dp86
g3
S'blank_pt-gd=gd'
p87
sg5
I-3
sg6
g10
saa(lp88
(dp89
g3
g34
sg5
I-1
sg6
g7
sa(dp90
g3
g4
sg5
I-2
sg6
g7
sa(dp91
g3
g25
sg5
I-3
sg6
g7
sa(dp92
g3
g40
sg5
I-1
sg6
g26
sa(dp93
g3
g42
sg5
I-1
sg6
g21
sa(dp94
g3
g44
sg5
I-1
sg6
g73
sa(dp95
g3
g9
sg5
I-2
sg6
g73
sa(dp96
g3
S'blank_0-N=N'
p97
sg5
I-3
sg6
g73
sa(dp98
g3
S'blank_correct_col'
p99
sg5
I-4
sg6
g13
sa(dp100
g3
g25
sg5
I-4
sg6
g49
saa(lp101
(dp102
g3
g34
sg5
I-1
sg6
g7
sa(dp103
g3
g42
sg5
I-1
sg6
g26
sa(dp104
g3
g40
sg5
I-1
sg6
g21
sa(dp105
g3
g44
sg5
I-1
sg6
g73
sa(dp106
g3
S'blank_correct_col'
p107
sg5
I-2
sg6
g26
sa(dp108
g3
g46
sg5
I-1
sg6
S'47'
p109
sa(dp110
g3
g25
sg5
I-2
sg6
g10
sa(dp111
g3
S'blank_correct_col'
p112
sg5
I-3
sg6
g73
sa(dp113
g3
g25
sg5
I-3
sg6
g23
saa(lp114
(dp115
g3
g16
sg5
I-1
sg6
g7
sa(dp116
g3
g4
sg5
I-2
sg6
g7
sa(dp117
g3
g4
sg5
I-3
sg6
g7
sa(dp118
g3
g12
sg5
I-1
sg6
g10
sa(dp119
g3
g9
sg5
I-2
sg6
g23
sa(dp120
g3
g9
sg5
I-3
sg6
g29
sa(dp121
g3
g46
sg5
I-3
sg6
S'33'
p122
sa(dp123
g3
g12
sg5
I-4
sg6
g73
saa(lp124
(dp125
g3
g34
sg5
I-1
sg6
g7
sa(dp126
g3
g34
sg5
I-2
sg6
g7
sa(dp127
g3
g34
sg5
I-3
sg6
g7
sa(dp128
g3
S'blank_pt-gd=0'
p129
sg5
I-4
sg6
g7
sa(dp130
g3
g42
sg5
I-1
sg6
g13
sa(dp131
g3
g40
sg5
I-1
sg6
g49
sa(dp132
g3
g44
sg5
I-1
sg6
g23
sa(dp133
g3
g42
sg5
I-2
sg6
g21
sa(dp134
g3
g40
sg5
I-2
sg6
g49
sa(dp135
g3
g44
sg5
I-2
sg6
S'9'
p136
sa(dp137
g3
g42
sg5
I-3
sg6
g26
sa(dp138
g3
g40
sg5
I-3
sg6
g10
sa(dp139
g3
g44
sg5
I-3
sg6
g49
sa(dp140
g3
g25
sg5
I-4
sg6
g26
sa(dp141
g3
S'blank_gd-pt'
p142
sg5
I-4
sg6
g10
sa(dp143
g3
S'blank_pt-gd=gd'
p144
sg5
I-4
sg6
g49
saa(lp145
(dp146
g3
g12
sg5
I-2
sg6
g7
sa(dp147
g3
g12
sg5
I-1
sg6
g13
sa(dp148
g3
g66
sg5
I-2
sg6
g13
sa(dp149
g3
g46
sg5
I-1
sg6
S'02'
p150
sa(dp151
g3
S'blank_correct_col'
p152
sg5
I-3
sg6
g13
sa(dp153
g3
g46
sg5
I-2
sg6
S'40'
p154
sa(dp155
g3
g25
sg5
I-3
sg6
g73
saa(lp156
(dp157
g3
g34
sg5
I-1
sg6
g7
sa(dp158
g3
g40
sg5
I-1
sg6
g26
sa(dp159
g3
g42
sg5
I-1
sg6
g21
sa(dp160
g3
g44
sg5
I-1
sg6
g73
sa(dp161
g3
g46
sg5
I-1
sg6
S'39'
p162
sa(dp163
g3
g12
sg5
I-2
sg6
g73
sa(dp164
g3
g12
sg5
I-3
sg6
g26
sa(dp165
g3
g46
sg5
I-2
sg6
S'14'
p166
saa(lp167
(dp168
g3
g34
sg5
I-1
sg6
g7
sa(dp169
g3
g40
sg5
I-1
sg6
g13
sa(dp170
g3
g42
sg5
I-1
sg6
g73
sa(dp171
g3
g44
sg5
I-1
sg6
g49
sa(dp172
g3
g12
sg5
I-2
sg6
g73
saa(lp173
(dp174
g3
g34
sg5
I-1
sg6
g7
sa(dp175
g3
g12
sg5
I-2
sg6
g7
sa(dp176
g3
S'blank_pt-gd=0'
p177
sg5
I-4
sg6
g7
sa(dp178
g3
g42
sg5
I-1
sg6
g13
sa(dp179
g3
g40
sg5
I-1
sg6
g21
sa(dp180
g3
g44
sg5
I-1
sg6
g10
sa(dp181
g3
g66
sg5
I-2
sg6
g13
sa(dp182
g3
g46
sg5
I-2
sg6
S'70'
p183
sa(dp184
g3
g12
sg5
I-3
sg6
g29
sa(dp185
g3
g25
sg5
I-4
sg6
g26
sa(dp186
g3
g46
sg5
I-3
sg6
S'17'
p187
sa(dp188
g3
S'blank_pt-gd=gd'
p189
sg5
I-4
sg6
g13
saa(lp190
(dp191
g3
g34
sg5
I-1
sg6
g7
sa(dp192
g3
g34
sg5
I-2
sg6
g7
sa(dp193
g3
g42
sg5
I-1
sg6
g73
sa(dp194
g3
g40
sg5
I-1
sg6
g10
sa(dp195
g3
g44
sg5
I-1
sg6
g136
sa(dp196
g3
g42
sg5
I-2
sg6
g21
sa(dp197
g3
g40
sg5
I-2
sg6
g73
sa(dp198
g3
g44
sg5
I-2
sg6
g29
sa(dp199
g3
g46
sg5
I-2
sg6
S'16'
p200
sa(dp201
g3
g12
sg5
I-3
sg6
g13
saa(lp202
(dp203
g3
g25
sg5
I-3
sg6
g7
sa(dp204
g3
g12
sg5
I-1
sg6
g10
sa(dp205
g3
S'blank_correct_col'
p206
sg5
I-2
sg6
g21
sa(dp207
g3
g25
sg5
I-2
sg6
g49
sa(dp208
g3
g46
sg5
I-1
sg6
S'65'
p209
sa(dp210
g3
S'blank_0-N=N'
p211
sg5
I-3
sg6
g21
sa(dp212
g3
S'blank_correct_col'
p213
sg5
I-4
sg6
g13
sa(dp214
g3
g25
sg5
I-4
sg6
g10
saa(lp215
(dp216
g3
g34
sg5
I-1
sg6
g7
sa(dp217
g3
g12
sg5
I-2
sg6
g7
sa(dp218
g3
g4
sg5
I-3
sg6
g7
sa(dp219
g3
g25
sg5
I-4
sg6
g7
sa(dp220
g3
g42
sg5
I-1
sg6
g26
sa(dp221
g3
g40
sg5
I-1
sg6
g73
sa(dp222
g3
g44
sg5
I-1
sg6
g10
sa(dp223
g3
g66
sg5
I-2
sg6
g73
sa(dp224
g3
g9
sg5
I-3
sg6
g26
sa(dp225
g3
S'blank_0-N=N'
p226
sg5
I-4
sg6
g26
sa(dp227
g3
S'blank_correct_col'
p228
sg5
I-5
sg6
g26
sa(dp229
g3
g25
sg5
I-5
sg6
g13
saa(lp230
(dp231
g3
g34
sg5
I-1
sg6
g7
sa(dp232
g3
g12
sg5
I-2
sg6
g7
sa(dp233
g3
g40
sg5
I-1
sg6
g21
sa(dp234
g3
g42
sg5
I-1
sg6
g10
sa(dp235
g3
g44
sg5
I-1
sg6
g23
sa(dp236
g3
g66
sg5
I-2
sg6
g21
sa(dp237
g3
g46
sg5
I-2
sg6
S'40'
p238
sa(dp239
g3
g12
sg5
I-3
sg6
g73
saa(lp240
(dp241
g3
g4
sg5
I-2
sg6
g7
sa(dp242
g3
g25
sg5
I-3
sg6
g7
sa(dp243
g3
S'blank_pt-gd=0'
p244
sg5
I-4
sg6
g7
sa(dp245
g3
g12
sg5
I-1
sg6
g21
sa(dp246
g3
g9
sg5
I-2
sg6
g49
sa(dp247
g3
S'blank_0-N=N'
p248
sg5
I-3
sg6
g49
sa(dp249
g3
g25
sg5
I-4
sg6
g21
sa(dp250
g3
S'blank_pt-gd=gd'
p251
sg5
I-4
sg6
g49
saa(lp252
(dp253
g3
g34
sg5
I-1
sg6
g7
sa(dp254
g3
g12
sg5
I-2
sg6
g7
sa(dp255
g3
g42
sg5
I-1
sg6
g26
sa(dp256
g3
g40
sg5
I-1
sg6
g21
sa(dp257
g3
g44
sg5
I-1
sg6
g73
sa(dp258
g3
g46
sg5
I-2
sg6
S'40'
p259
sa(dp260
g3
g12
sg5
I-3
sg6
g73
saa(lp261
(dp262
g3
g12
sg5
I-1
sg6
g7
sa(dp263
g3
g16
sg5
I-2
sg6
g7
sa(dp264
g3
g66
sg5
I-1
sg6
g49
sa(dp265
g3
g46
sg5
I-1
sg6
S'90'
p266
sa(dp267
g3
g12
sg5
I-2
sg6
g136
sa(dp268
g3
g12
sg5
I-3
sg6
g13
sa(dp269
g3
g46
sg5
I-2
sg6
S'29'
p270
saa.