(lp0
(lp1
(dp2
S'type'
p3
S'correct_col'
p4
sS'pos'
p5
I-2
sS'result'
p6
S'0'
p7
sa(dp8
g3
g4
sg5
I-1
sg6
S'2'
p9
sa(dp10
g3
S'N-N=N'
p11
sg5
I-2
sg6
S'4'
p12
sa(dp13
g3
S'incomplete'
p14
sg5
I-1
sg6
S'02'
p15
sa(dp16
g3
S'blank_correct_col'
p17
sg5
I-3
sg6
g9
sa(dp18
g3
g14
sg5
I-2
sg6
S'60'
p19
sa(dp20
g3
S'copy'
p21
sg5
I-3
sg6
S'6'
p22
saa(lp23
(dp24
g3
g4
sg5
I-1
sg6
g7
sa(dp25
g3
S'N-0=0'
p26
sg5
I-2
sg6
g7
sa(dp27
g3
g11
sg5
I-1
sg6
S'5'
p28
sa(dp29
g3
g14
sg5
I-1
sg6
S'80'
p30
sa(dp31
g3
g4
sg5
I-2
sg6
S'8'
p32
sa(dp33
g3
g4
sg5
I-3
sg6
g22
sa(dp34
g3
g14
sg5
I-2
sg6
S'68'
p35
saa(lp36
(dp37
g3
S'pt-gd=0'
p38
sg5
I-1
sg6
g7
sa(dp39
g3
S'gd-pt'
p40
sg5
I-1
sg6
S'1'
p41
sa(dp42
g3
S'pt-gd=pt'
p43
sg5
I-1
sg6
S'3'
p44
sa(dp45
g3
S'pt-gd=gd'
p46
sg5
I-1
sg6
g12
sa(dp47
g3
g4
sg5
I-2
sg6
g12
saa(lp48
(dp49
g3
g21
sg5
I-2
sg6
g7
sa(dp50
g3
S'blank_correct_col'
p51
sg5
I-3
sg6
g7
sa(dp52
g3
S'blank_pt-gd=?'
p53
sg5
I-2
sg6
S'X'
p54
sa(dp55
g3
g4
sg5
I-1
sg6
g9
sa(dp56
g3
S'blank_gd-pt'
p57
sg5
I-2
sg6
g44
sa(dp58
g3
S'blank_pt-gd=gd'
p59
sg5
I-2
sg6
g44
sa(dp60
g3
S'blank_0-N=N'
p61
sg5
I-2
sg6
g44
sa(dp62
g3
g14
sg5
I-1
sg6
S'02'
p63
sa(dp64
g3
g21
sg5
I-3
sg6
g44
sa(dp65
g3
S'blank_correct_col'
p66
sg5
I-4
sg6
g28
sa(dp67
g3
g21
sg5
I-4
sg6
g32
saa(lp68
(dp69
g3
g38
sg5
I-1
sg6
g7
sa(dp70
g3
g43
sg5
I-1
sg6
g7
sa(dp71
g3
S'0-N=0'
p72
sg5
I-1
sg6
g7
sa(dp73
g3
g40
sg5
I-1
sg6
g44
sa(dp74
g3
g46
sg5
I-1
sg6
g44
sa(dp75
g3
S'0-N=N'
p76
sg5
I-1
sg6
g44
sa(dp77
g3
g4
sg5
I-2
sg6
g44
saa(lp78
(dp79
g3
g38
sg5
I-1
sg6
g7
sa(dp80
g3
g40
sg5
I-1
sg6
g41
sa(dp81
g3
g43
sg5
I-1
sg6
g9
sa(dp82
g3
g46
sg5
I-1
sg6
g44
sa(dp83
g3
S'blank_correct_col'
p84
sg5
I-2
sg6
g44
sa(dp85
g3
g14
sg5
I-1
sg6
S'59'
p86
sa(dp87
g3
g21
sg5
I-2
sg6
g22
sa(dp88
g3
S'blank_correct_col'
p89
sg5
I-3
sg6
g9
sa(dp90
g3
g21
sg5
I-3
sg6
g28
saa(lp91
(dp92
g3
g38
sg5
I-1
sg6
g7
sa(dp93
g3
g43
sg5
I-1
sg6
g9
sa(dp94
g3
g40
sg5
I-1
sg6
g12
sa(dp95
g3
g46
sg5
I-1
sg6
g22
sa(dp96
g3
g4
sg5
I-2
sg6
g41
sa(dp97
g3
g14
sg5
I-1
sg6
S'06'
p98
sa(dp99
g3
g4
sg5
I-3
sg6
g22
sa(dp100
g3
g14
sg5
I-2
sg6
S'61'
p101
saa(lp102
(dp103
g3
g26
sg5
I-1
sg6
g7
sa(dp104
g3
g38
sg5
I-2
sg6
g7
sa(dp105
g3
g43
sg5
I-2
sg6
g7
sa(dp106
g3
g72
sg5
I-2
sg6
g7
sa(dp107
g3
S'blank_pt-gd=0'
p108
sg5
I-3
sg6
g7
sa(dp109
g3
S'pt-gd=?'
p110
sg5
I-2
sg6
g54
sa(dp111
g3
S'blank_pt-gd=?'
p112
sg5
I-3
sg6
g54
sa(dp113
g3
g4
sg5
I-1
sg6
g22
sa(dp114
g3
g40
sg5
I-2
sg6
S'7'
p115
sa(dp116
g3
g46
sg5
I-2
sg6
g115
sa(dp117
g3
g76
sg5
I-2
sg6
g115
sa(dp118
g3
g21
sg5
I-3
sg6
g41
sa(dp119
g3
S'blank_gd-pt'
p120
sg5
I-3
sg6
g22
sa(dp121
g3
S'blank_pt-gd=gd'
p122
sg5
I-3
sg6
g115
saa(lp123
(dp124
g3
g38
sg5
I-1
sg6
g7
sa(dp125
g3
g38
sg5
I-2
sg6
g7
sa(dp126
g3
g110
sg5
I-2
sg6
g54
sa(dp127
g3
g40
sg5
I-1
sg6
g9
sa(dp128
g3
g43
sg5
I-1
sg6
g22
sa(dp129
g3
g46
sg5
I-1
sg6
g32
sa(dp130
g3
g43
sg5
I-2
sg6
g41
sa(dp131
g3
g40
sg5
I-2
sg6
g32
sa(dp132
g3
g46
sg5
I-2
sg6
S'9'
p133
sa(dp134
g3
g14
sg5
I-2
sg6
S'12'
p135
sa(dp136
g3
g4
sg5
I-3
sg6
g9
saa(lp137
(dp138
g3
g38
sg5
I-1
sg6
g7
sa(dp139
g3
g38
sg5
I-2
sg6
g7
sa(dp140
g3
g38
sg5
I-3
sg6
g7
sa(dp141
g3
S'blank_pt-gd=0'
p142
sg5
I-4
sg6
g7
sa(dp143
g3
g110
sg5
I-2
sg6
g54
sa(dp144
g3
g110
sg5
I-3
sg6
g54
sa(dp145
g3
S'blank_pt-gd=?'
p146
sg5
I-4
sg6
g54
sa(dp147
g3
g40
sg5
I-1
sg6
g44
sa(dp148
g3
g43
sg5
I-1
sg6
g12
sa(dp149
g3
g46
sg5
I-1
sg6
g115
sa(dp150
g3
g40
sg5
I-2
sg6
g9
sa(dp151
g3
g43
sg5
I-2
sg6
g22
sa(dp152
g3
g46
sg5
I-2
sg6
g32
sa(dp153
g3
g40
sg5
I-3
sg6
g44
sa(dp154
g3
g43
sg5
I-3
sg6
g28
sa(dp155
g3
g46
sg5
I-3
sg6
g32
sa(dp156
g3
g21
sg5
I-4
sg6
g41
sa(dp157
g3
S'blank_gd-pt'
p158
sg5
I-4
sg6
g115
sa(dp159
g3
S'blank_pt-gd=gd'
p160
sg5
I-4
sg6
g32
saa(lp161
(dp162
g3
g38
sg5
I-1
sg6
g7
sa(dp163
g3
g4
sg5
I-2
sg6
g7
sa(dp164
g3
g38
sg5
I-3
sg6
g7
sa(dp165
g3
g110
sg5
I-3
sg6
g54
sa(dp166
g3
g43
sg5
I-1
sg6
g41
sa(dp167
g3
g40
sg5
I-1
sg6
g22
sa(dp168
g3
g46
sg5
I-1
sg6
g115
sa(dp169
g3
g11
sg5
I-2
sg6
g133
sa(dp170
g3
g40
sg5
I-3
sg6
g41
sa(dp171
g3
g43
sg5
I-3
sg6
g28
sa(dp172
g3
g46
sg5
I-3
sg6
g22
sa(dp173
g3
g14
sg5
I-3
sg6
S'39'
p174
sa(dp175
g3
g4
sg5
I-4
sg6
g12
saa(lp176
(dp177
g3
g38
sg5
I-1
sg6
g7
sa(dp178
g3
g4
sg5
I-2
sg6
g7
sa(dp179
g3
g43
sg5
I-1
sg6
g41
sa(dp180
g3
g40
sg5
I-1
sg6
g44
sa(dp181
g3
g46
sg5
I-1
sg6
g12
sa(dp182
g3
g11
sg5
I-2
sg6
g41
sa(dp183
g3
g14
sg5
I-2
sg6
S'10'
p184
sa(dp185
g3
g4
sg5
I-3
sg6
g41
saa(lp186
(dp187
g3
g38
sg5
I-1
sg6
g7
sa(dp188
g3
g4
sg5
I-2
sg6
g7
sa(dp189
g3
S'blank_pt-gd=0'
p190
sg5
I-4
sg6
g7
sa(dp191
g3
S'blank_pt-gd=?'
p192
sg5
I-4
sg6
g54
sa(dp193
g3
g40
sg5
I-1
sg6
g9
sa(dp194
g3
g43
sg5
I-1
sg6
g44
sa(dp195
g3
g46
sg5
I-1
sg6
g28
sa(dp196
g3
g11
sg5
I-2
sg6
g41
sa(dp197
g3
g14
sg5
I-2
sg6
S'60'
p198
sa(dp199
g3
g4
sg5
I-3
sg6
g22
sa(dp200
g3
g21
sg5
I-4
sg6
g41
sa(dp201
g3
g14
sg5
I-3
sg6
S'16'
p202
sa(dp203
g3
S'blank_pt-gd=gd'
p204
sg5
I-4
sg6
g9
saa(lp205
(dp206
g3
g38
sg5
I-1
sg6
g7
sa(dp207
g3
g38
sg5
I-2
sg6
g7
sa(dp208
g3
g43
sg5
I-2
sg6
g7
sa(dp209
g3
g72
sg5
I-2
sg6
g7
sa(dp210
g3
S'blank_pt-gd=0'
p211
sg5
I-3
sg6
g7
sa(dp212
g3
g110
sg5
I-2
sg6
g54
sa(dp213
g3
S'blank_pt-gd=?'
p214
sg5
I-3
sg6
g54
sa(dp215
g3
g43
sg5
I-1
sg6
g9
sa(dp216
g3
g40
sg5
I-1
sg6
g115
sa(dp217
g3
g46
sg5
I-1
sg6
g133
sa(dp218
g3
g40
sg5
I-2
sg6
g44
sa(dp219
g3
g46
sg5
I-2
sg6
g44
sa(dp220
g3
g76
sg5
I-2
sg6
g44
sa(dp221
g3
g21
sg5
I-3
sg6
g41
sa(dp222
g3
S'blank_gd-pt'
p223
sg5
I-3
sg6
g9
sa(dp224
g3
S'blank_pt-gd=gd'
p225
sg5
I-3
sg6
g44
saa(lp226
(dp227
g3
g26
sg5
I-1
sg6
g7
sa(dp228
g3
g38
sg5
I-2
sg6
g7
sa(dp229
g3
g43
sg5
I-2
sg6
g7
sa(dp230
g3
g72
sg5
I-2
sg6
g7
sa(dp231
g3
g38
sg5
I-3
sg6
g7
sa(dp232
g3
g43
sg5
I-3
sg6
g7
sa(dp233
g3
g72
sg5
I-3
sg6
g7
sa(dp234
g3
g110
sg5
I-2
sg6
g54
sa(dp235
g3
g110
sg5
I-3
sg6
g54
sa(dp236
g3
g4
sg5
I-1
sg6
g115
sa(dp237
g3
g40
sg5
I-2
sg6
g32
sa(dp238
g3
g46
sg5
I-2
sg6
g32
sa(dp239
g3
g76
sg5
I-2
sg6
g32
sa(dp240
g3
g40
sg5
I-3
sg6
g32
sa(dp241
g3
g46
sg5
I-3
sg6
g32
sa(dp242
g3
g76
sg5
I-3
sg6
g32
sa(dp243
g3
g14
sg5
I-3
sg6
S'22'
p244
sa(dp245
g3
g4
sg5
I-4
sg6
g44
saa(lp246
(dp247
g3
g38
sg5
I-1
sg6
g7
sa(dp248
g3
g26
sg5
I-2
sg6
g7
sa(dp249
g3
g38
sg5
I-3
sg6
g7
sa(dp250
g3
g43
sg5
I-3
sg6
g7
sa(dp251
g3
g72
sg5
I-3
sg6
g7
sa(dp252
g3
S'blank_pt-gd=0'
p253
sg5
I-4
sg6
g7
sa(dp254
g3
g110
sg5
I-3
sg6
g54
sa(dp255
g3
S'blank_pt-gd=?'
p256
sg5
I-4
sg6
g54
sa(dp257
g3
g40
sg5
I-1
sg6
g9
sa(dp258
g3
g43
sg5
I-1
sg6
g28
sa(dp259
g3
g46
sg5
I-1
sg6
g115
sa(dp260
g3
g4
sg5
I-2
sg6
g41
sa(dp261
g3
g14
sg5
I-1
sg6
S'08'
p262
sa(dp263
g3
g40
sg5
I-3
sg6
g22
sa(dp264
g3
g46
sg5
I-3
sg6
g22
sa(dp265
g3
g76
sg5
I-3
sg6
g22
sa(dp266
g3
S'blank_gd-pt'
p267
sg5
I-4
sg6
g9
sa(dp268
g3
g14
sg5
I-3
sg6
S'34'
p269
sa(dp270
g3
g21
sg5
I-4
sg6
g12
sa(dp271
g3
S'blank_pt-gd=gd'
p272
sg5
I-4
sg6
g22
saa(lp273
(dp274
g3
g38
sg5
I-1
sg6
g7
sa(dp275
g3
g4
sg5
I-2
sg6
g7
sa(dp276
g3
g43
sg5
I-1
sg6
g9
sa(dp277
g3
g40
sg5
I-1
sg6
g22
sa(dp278
g3
g46
sg5
I-1
sg6
g32
sa(dp279
g3
g14
sg5
I-2
sg6
S'60'
p280
sa(dp281
g3
g4
sg5
I-3
sg6
g22
saa(lp282
(dp283
g3
g38
sg5
I-2
sg6
g7
sa(dp284
g3
g43
sg5
I-2
sg6
g7
sa(dp285
g3
g72
sg5
I-2
sg6
g7
sa(dp286
g3
g21
sg5
I-3
sg6
g7
sa(dp287
g3
S'blank_pt-gd=0'
p288
sg5
I-4
sg6
g7
sa(dp289
g3
g110
sg5
I-2
sg6
g54
sa(dp290
g3
S'blank_pt-gd=?'
p291
sg5
I-3
sg6
g54
sa(dp292
g3
S'blank_pt-gd=?'
p293
sg5
I-4
sg6
g54
sa(dp294
g3
g4
sg5
I-1
sg6
g12
sa(dp295
g3
g40
sg5
I-2
sg6
g12
sa(dp296
g3
g46
sg5
I-2
sg6
g12
sa(dp297
g3
g76
sg5
I-2
sg6
g12
sa(dp298
g3
S'blank_gd-pt'
p299
sg5
I-3
sg6
g12
sa(dp300
g3
S'blank_pt-gd=gd'
p301
sg5
I-3
sg6
g12
sa(dp302
g3
S'blank_0-N=N'
p303
sg5
I-3
sg6
g12
sa(dp304
g3
g21
sg5
I-4
sg6
g9
sa(dp305
g3
S'blank_pt-gd=gd'
p306
sg5
I-4
sg6
g12
saa(lp307
(dp308
g3
g38
sg5
I-1
sg6
g7
sa(dp309
g3
g4
sg5
I-2
sg6
g7
sa(dp310
g3
g38
sg5
I-3
sg6
g7
sa(dp311
g3
g43
sg5
I-3
sg6
g7
sa(dp312
g3
g72
sg5
I-3
sg6
g7
sa(dp313
g3
g21
sg5
I-4
sg6
g7
sa(dp314
g3
S'blank_pt-gd=0'
p315
sg5
I-5
sg6
g7
sa(dp316
g3
g110
sg5
I-3
sg6
g54
sa(dp317
g3
S'blank_pt-gd=?'
p318
sg5
I-4
sg6
g54
sa(dp319
g3
S'blank_pt-gd=?'
p320
sg5
I-5
sg6
g54
sa(dp321
g3
g40
sg5
I-1
sg6
g9
sa(dp322
g3
g43
sg5
I-1
sg6
g9
sa(dp323
g3
g46
sg5
I-1
sg6
g12
sa(dp324
g3
g11
sg5
I-2
sg6
g41
sa(dp325
g3
g40
sg5
I-3
sg6
g9
sa(dp326
g3
g46
sg5
I-3
sg6
g9
sa(dp327
g3
g76
sg5
I-3
sg6
g9
sa(dp328
g3
S'blank_gd-pt'
p329
sg5
I-4
sg6
g9
sa(dp330
g3
S'blank_pt-gd=gd'
p331
sg5
I-4
sg6
g9
sa(dp332
g3
S'blank_0-N=N'
p333
sg5
I-4
sg6
g9
sa(dp334
g3
g21
sg5
I-5
sg6
g41
sa(dp335
g3
S'blank_pt-gd=gd'
p336
sg5
I-5
sg6
g9
saa(lp337
(dp338
g3
g38
sg5
I-1
sg6
g7
sa(dp339
g3
g38
sg5
I-2
sg6
g7
sa(dp340
g3
g43
sg5
I-2
sg6
g7
sa(dp341
g3
g72
sg5
I-2
sg6
g7
sa(dp342
g3
g21
sg5
I-3
sg6
g7
sa(dp343
g3
g110
sg5
I-2
sg6
g54
sa(dp344
g3
S'blank_pt-gd=?'
p345
sg5
I-3
sg6
g54
sa(dp346
g3
g43
sg5
I-1
sg6
g41
sa(dp347
g3
g40
sg5
I-1
sg6
g9
sa(dp348
g3
g46
sg5
I-1
sg6
g44
sa(dp349
g3
g40
sg5
I-2
sg6
g12
sa(dp350
g3
g46
sg5
I-2
sg6
g12
sa(dp351
g3
g76
sg5
I-2
sg6
g12
sa(dp352
g3
S'blank_gd-pt'
p353
sg5
I-3
sg6
g12
sa(dp354
g3
S'blank_pt-gd=gd'
p355
sg5
I-3
sg6
g12
sa(dp356
g3
S'blank_0-N=N'
p357
sg5
I-3
sg6
g12
sa(dp358
g3
S'blank_correct_col'
p359
sg5
I-4
sg6
g12
sa(dp360
g3
g21
sg5
I-4
sg6
g32
saa.