(lp0
(lp1
(dp2
S'type'
p3
S'0-N=0'
p4
sS'pos'
p5
I-1
sS'result'
p6
S'0'
p7
sa(dp8
g3
S'0-N=N'
p9
sg5
I-1
sg6
S'5'
p10
sa(dp11
g3
S'correct_col'
p12
sg5
I-2
sg6
S'2'
p13
saa(lp14
(dp15
g3
S'N-0=0'
p16
sg5
I-1
sg6
g7
sa(dp17
g3
g4
sg5
I-2
sg6
g7
sa(dp18
g3
S'blank_pt-gd=0'
p19
sg5
I-3
sg6
g7
sa(dp20
g3
S'pt-gd=?'
p21
sg5
I-2
sg6
S'X'
p22
sa(dp23
g3
S'blank_pt-gd=?'
p24
sg5
I-3
sg6
g22
sa(dp25
g3
g12
sg5
I-1
sg6
S'3'
p26
sa(dp27
g3
g9
sg5
I-2
sg6
S'8'
p28
sa(dp29
g3
S'copy'
p30
sg5
I-3
sg6
S'1'
p31
sa(dp32
g3
S'blank_gd-pt'
p33
sg5
I-3
sg6
S'7'
p34
saa(lp35
(dp36
g3
S'pt-gd=0'
p37
sg5
I-1
sg6
g7
sa(dp38
g3
g16
sg5
I-2
sg6
g7
sa(dp39
g3
g4
sg5
I-3
sg6
g7
sa(dp40
g3
S'blank_pt-gd=0'
p41
sg5
I-4
sg6
g7
sa(dp42
g3
g21
sg5
I-3
sg6
g22
sa(dp43
g3
S'blank_pt-gd=?'
p44
sg5
I-4
sg6
g22
sa(dp45
g3
S'gd-pt'
p46
sg5
I-1
sg6
g13
sa(dp47
g3
S'incomplete'
p48
sg5
I-1
sg6
S'58'
p49
sa(dp50
g3
g12
sg5
I-2
sg6
S'6'
p51
sa(dp52
g3
g9
sg5
I-3
sg6
g28
sa(dp53
g3
g48
sg5
I-3
sg6
S'12'
p54
sa(dp55
g3
g30
sg5
I-4
sg6
g13
sa(dp56
g3
S'blank_gd-pt'
p57
sg5
I-4
sg6
g51
saa(lp58
(dp59
g3
g37
sg5
I-1
sg6
g7
sa(dp60
g3
g12
sg5
I-2
sg6
g7
sa(dp61
g3
g37
sg5
I-3
sg6
g7
sa(dp62
g3
g21
sg5
I-3
sg6
g22
sa(dp63
g3
g46
sg5
I-1
sg6
g13
sa(dp64
g3
g46
sg5
I-3
sg6
g10
sa(dp65
g3
g48
sg5
I-3
sg6
S'35'
p66
sa(dp67
g3
g12
sg5
I-4
sg6
S'4'
p68
saa(lp69
(dp70
g3
g37
sg5
I-1
sg6
g7
sa(dp71
g3
g4
sg5
I-2
sg6
g7
sa(dp72
g3
S'blank_pt-gd=0'
p73
sg5
I-3
sg6
g7
sa(dp74
g3
g21
sg5
I-2
sg6
g22
sa(dp75
g3
S'blank_pt-gd=?'
p76
sg5
I-3
sg6
g22
sa(dp77
g3
g46
sg5
I-1
sg6
g13
sa(dp78
g3
g9
sg5
I-2
sg6
g10
sa(dp79
g3
g30
sg5
I-3
sg6
g31
sa(dp80
g3
S'blank_gd-pt'
p81
sg5
I-3
sg6
g68
saa(lp82
(dp83
g3
g37
sg5
I-1
sg6
g7
sa(dp84
g3
g4
sg5
I-2
sg6
g7
sa(dp85
g3
g30
sg5
I-3
sg6
g7
sa(dp86
g3
g21
sg5
I-2
sg6
g22
sa(dp87
g3
S'blank_pt-gd=?'
p88
sg5
I-3
sg6
g22
sa(dp89
g3
g46
sg5
I-1
sg6
g31
sa(dp90
g3
g9
sg5
I-2
sg6
g68
sa(dp91
g3
S'blank_0-N=N'
p92
sg5
I-3
sg6
g68
sa(dp93
g3
S'blank_correct_col'
p94
sg5
I-4
sg6
g13
sa(dp95
g3
g30
sg5
I-4
sg6
g51
saa(lp96
(dp97
g3
g37
sg5
I-1
sg6
g7
sa(dp98
g3
g46
sg5
I-1
sg6
g26
sa(dp99
g3
S'blank_correct_col'
p100
sg5
I-2
sg6
g31
sa(dp101
g3
g48
sg5
I-1
sg6
S'47'
p102
sa(dp103
g3
g30
sg5
I-2
sg6
g10
sa(dp104
g3
S'blank_correct_col'
p105
sg5
I-3
sg6
g68
sa(dp106
g3
g30
sg5
I-3
sg6
g28
saa(lp107
(dp108
g3
g16
sg5
I-1
sg6
g7
sa(dp109
g3
g4
sg5
I-2
sg6
g7
sa(dp110
g3
g4
sg5
I-3
sg6
g7
sa(dp111
g3
g21
sg5
I-2
sg6
g22
sa(dp112
g3
g21
sg5
I-3
sg6
g22
sa(dp113
g3
g12
sg5
I-1
sg6
g10
sa(dp114
g3
g9
sg5
I-2
sg6
g28
sa(dp115
g3
g9
sg5
I-3
sg6
g34
sa(dp116
g3
g48
sg5
I-3
sg6
S'33'
p117
sa(dp118
g3
g12
sg5
I-4
sg6
g68
saa(lp119
(dp120
g3
g37
sg5
I-1
sg6
g7
sa(dp121
g3
g37
sg5
I-2
sg6
g7
sa(dp122
g3
g37
sg5
I-3
sg6
g7
sa(dp123
g3
S'blank_pt-gd=0'
p124
sg5
I-4
sg6
g7
sa(dp125
g3
g21
sg5
I-2
sg6
g22
sa(dp126
g3
g21
sg5
I-3
sg6
g22
sa(dp127
g3
S'blank_pt-gd=?'
p128
sg5
I-4
sg6
g22
sa(dp129
g3
g46
sg5
I-1
sg6
g51
sa(dp130
g3
g46
sg5
I-2
sg6
g51
sa(dp131
g3
g46
sg5
I-3
sg6
g10
sa(dp132
g3
g30
sg5
I-4
sg6
g31
sa(dp133
g3
S'blank_gd-pt'
p134
sg5
I-4
sg6
g10
saa(lp135
(dp136
g3
g12
sg5
I-2
sg6
g7
sa(dp137
g3
g12
sg5
I-1
sg6
g13
sa(dp138
g3
g48
sg5
I-1
sg6
S'02'
p139
sa(dp140
g3
S'blank_correct_col'
p141
sg5
I-3
sg6
g13
sa(dp142
g3
g48
sg5
I-2
sg6
S'40'
p143
sa(dp144
g3
g30
sg5
I-3
sg6
g68
saa(lp145
(dp146
g3
g37
sg5
I-1
sg6
g7
sa(dp147
g3
g46
sg5
I-1
sg6
g31
sa(dp148
g3
g48
sg5
I-1
sg6
S'39'
p149
sa(dp150
g3
g12
sg5
I-2
sg6
g68
sa(dp151
g3
g12
sg5
I-3
sg6
g31
sa(dp152
g3
g48
sg5
I-2
sg6
S'14'
p153
saa(lp154
(dp155
g3
g37
sg5
I-1
sg6
g7
sa(dp156
g3
g46
sg5
I-1
sg6
g13
sa(dp157
g3
g12
sg5
I-2
sg6
g68
saa(lp158
(dp159
g3
g37
sg5
I-1
sg6
g7
sa(dp160
g3
g12
sg5
I-2
sg6
g7
sa(dp161
g3
S'blank_pt-gd=0'
p162
sg5
I-4
sg6
g7
sa(dp163
g3
S'blank_pt-gd=?'
p164
sg5
I-4
sg6
g22
sa(dp165
g3
g46
sg5
I-1
sg6
g26
sa(dp166
g3
g48
sg5
I-2
sg6
S'70'
p167
sa(dp168
g3
g12
sg5
I-3
sg6
g34
sa(dp169
g3
g30
sg5
I-4
sg6
g31
sa(dp170
g3
g48
sg5
I-3
sg6
S'17'
p171
saa(lp172
(dp173
g3
g37
sg5
I-1
sg6
g7
sa(dp174
g3
g37
sg5
I-2
sg6
g7
sa(dp175
g3
g21
sg5
I-2
sg6
g22
sa(dp176
g3
g46
sg5
I-1
sg6
g10
sa(dp177
g3
g46
sg5
I-2
sg6
g68
sa(dp178
g3
g48
sg5
I-2
sg6
S'16'
p179
sa(dp180
g3
g12
sg5
I-3
sg6
g13
saa(lp181
(dp182
g3
g30
sg5
I-3
sg6
g7
sa(dp183
g3
S'blank_pt-gd=?'
p184
sg5
I-3
sg6
g22
sa(dp185
g3
g12
sg5
I-1
sg6
g10
sa(dp186
g3
S'blank_correct_col'
p187
sg5
I-2
sg6
g26
sa(dp188
g3
g30
sg5
I-2
sg6
g51
sa(dp189
g3
g48
sg5
I-1
sg6
S'65'
p190
sa(dp191
g3
S'blank_0-N=N'
p192
sg5
I-3
sg6
g26
sa(dp193
g3
S'blank_correct_col'
p194
sg5
I-4
sg6
g13
sa(dp195
g3
g30
sg5
I-4
sg6
g10
saa(lp196
(dp197
g3
g37
sg5
I-1
sg6
g7
sa(dp198
g3
g12
sg5
I-2
sg6
g7
sa(dp199
g3
g4
sg5
I-3
sg6
g7
sa(dp200
g3
g30
sg5
I-4
sg6
g7
sa(dp201
g3
g21
sg5
I-3
sg6
g22
sa(dp202
g3
S'blank_pt-gd=?'
p203
sg5
I-4
sg6
g22
sa(dp204
g3
g46
sg5
I-1
sg6
g68
sa(dp205
g3
g9
sg5
I-3
sg6
g31
sa(dp206
g3
S'blank_0-N=N'
p207
sg5
I-4
sg6
g31
sa(dp208
g3
S'blank_correct_col'
p209
sg5
I-5
sg6
g31
sa(dp210
g3
g30
sg5
I-5
sg6
g13
saa(lp211
(dp212
g3
g37
sg5
I-1
sg6
g7
sa(dp213
g3
g12
sg5
I-2
sg6
g7
sa(dp214
g3
g46
sg5
I-1
sg6
g26
sa(dp215
g3
g48
sg5
I-2
sg6
S'40'
p216
sa(dp217
g3
g12
sg5
I-3
sg6
g68
saa(lp218
(dp219
g3
g4
sg5
I-2
sg6
g7
sa(dp220
g3
g30
sg5
I-3
sg6
g7
sa(dp221
g3
S'blank_pt-gd=0'
p222
sg5
I-4
sg6
g7
sa(dp223
g3
g21
sg5
I-2
sg6
g22
sa(dp224
g3
S'blank_pt-gd=?'
p225
sg5
I-3
sg6
g22
sa(dp226
g3
S'blank_pt-gd=?'
p227
sg5
I-4
sg6
g22
sa(dp228
g3
g12
sg5
I-1
sg6
g26
sa(dp229
g3
g9
sg5
I-2
sg6
g51
sa(dp230
g3
S'blank_0-N=N'
p231
sg5
I-3
sg6
g51
sa(dp232
g3
g30
sg5
I-4
sg6
g26
saa(lp233
(dp234
g3
g37
sg5
I-1
sg6
g7
sa(dp235
g3
g12
sg5
I-2
sg6
g7
sa(dp236
g3
g46
sg5
I-1
sg6
g26
sa(dp237
g3
g48
sg5
I-2
sg6
S'40'
p238
sa(dp239
g3
g12
sg5
I-3
sg6
g68
saa(lp240
(dp241
g3
g12
sg5
I-1
sg6
g7
sa(dp242
g3
g16
sg5
I-2
sg6
g7
sa(dp243
g3
g48
sg5
I-1
sg6
S'90'
p244
sa(dp245
g3
g12
sg5
I-2
sg6
S'9'
p246
sa(dp247
g3
g12
sg5
I-3
sg6
g13
sa(dp248
g3
g48
sg5
I-2
sg6
S'29'
p249
saa.