(lp0
(lp1
(dp2
S'type'
p3
S'correct_col'
p4
sS'pos'
p5
I-2
sS'result'
p6
S'0'
p7
sa(dp8
g3
g4
sg5
I-1
sg6
S'2'
p9
sa(dp10
g3
S'N-N=N'
p11
sg5
I-2
sg6
S'4'
p12
sa(dp13
g3
S'incomplete'
p14
sg5
I-1
sg6
S'02'
p15
sa(dp16
g3
S'blank_correct_col'
p17
sg5
I-3
sg6
g9
sa(dp18
g3
g14
sg5
I-2
sg6
S'60'
p19
sa(dp20
g3
S'copy'
p21
sg5
I-3
sg6
S'6'
p22
saa(lp23
(dp24
g3
g4
sg5
I-1
sg6
g7
sa(dp25
g3
S'N-0=0'
p26
sg5
I-2
sg6
g7
sa(dp27
g3
g11
sg5
I-1
sg6
S'5'
p28
sa(dp29
g3
g14
sg5
I-1
sg6
S'80'
p30
sa(dp31
g3
g4
sg5
I-2
sg6
S'8'
p32
sa(dp33
g3
g4
sg5
I-3
sg6
g22
sa(dp34
g3
g14
sg5
I-2
sg6
S'68'
p35
saa(lp36
(dp37
g3
S'pt-gd=0'
p38
sg5
I-1
sg6
g7
sa(dp39
g3
S'gd-pt'
p40
sg5
I-1
sg6
S'1'
p41
sa(dp42
g3
S'pt-gd=pt'
p43
sg5
I-1
sg6
S'3'
p44
sa(dp45
g3
S'pt-gd=gd'
p46
sg5
I-1
sg6
g12
sa(dp47
g3
g4
sg5
I-2
sg6
g12
saa(lp48
(dp49
g3
g21
sg5
I-2
sg6
g7
sa(dp50
g3
S'blank_correct_col'
p51
sg5
I-3
sg6
g7
sa(dp52
g3
g4
sg5
I-1
sg6
g9
sa(dp53
g3
S'blank_0-N=N'
p54
sg5
I-2
sg6
g44
sa(dp55
g3
g14
sg5
I-1
sg6
S'02'
p56
sa(dp57
g3
g21
sg5
I-3
sg6
g44
sa(dp58
g3
S'blank_correct_col'
p59
sg5
I-4
sg6
g28
sa(dp60
g3
g21
sg5
I-4
sg6
g32
saa(lp61
(dp62
g3
S'0-N=0'
p63
sg5
I-1
sg6
g7
sa(dp64
g3
S'0-N=N'
p65
sg5
I-1
sg6
g44
sa(dp66
g3
g4
sg5
I-2
sg6
g44
saa(lp67
(dp68
g3
g38
sg5
I-1
sg6
g7
sa(dp69
g3
g40
sg5
I-1
sg6
g41
sa(dp70
g3
g43
sg5
I-1
sg6
g9
sa(dp71
g3
g46
sg5
I-1
sg6
g44
sa(dp72
g3
S'blank_correct_col'
p73
sg5
I-2
sg6
g44
sa(dp74
g3
g14
sg5
I-1
sg6
S'59'
p75
sa(dp76
g3
g21
sg5
I-2
sg6
g22
sa(dp77
g3
S'blank_correct_col'
p78
sg5
I-3
sg6
g9
sa(dp79
g3
g21
sg5
I-3
sg6
g28
saa(lp80
(dp81
g3
g38
sg5
I-1
sg6
g7
sa(dp82
g3
g43
sg5
I-1
sg6
g9
sa(dp83
g3
g40
sg5
I-1
sg6
g12
sa(dp84
g3
g46
sg5
I-1
sg6
g22
sa(dp85
g3
g4
sg5
I-2
sg6
g41
sa(dp86
g3
g14
sg5
I-1
sg6
S'06'
p87
sa(dp88
g3
g4
sg5
I-3
sg6
g22
sa(dp89
g3
g14
sg5
I-2
sg6
S'61'
p90
saa(lp91
(dp92
g3
g26
sg5
I-1
sg6
g7
sa(dp93
g3
g63
sg5
I-2
sg6
g7
sa(dp94
g3
S'blank_pt-gd=0'
p95
sg5
I-3
sg6
g7
sa(dp96
g3
g4
sg5
I-1
sg6
g22
sa(dp97
g3
g65
sg5
I-2
sg6
S'7'
p98
sa(dp99
g3
g21
sg5
I-3
sg6
g41
sa(dp100
g3
S'blank_gd-pt'
p101
sg5
I-3
sg6
g22
sa(dp102
g3
S'blank_pt-gd=gd'
p103
sg5
I-3
sg6
g98
saa(lp104
(dp105
g3
g38
sg5
I-1
sg6
g7
sa(dp106
g3
g38
sg5
I-2
sg6
g7
sa(dp107
g3
g40
sg5
I-1
sg6
g9
sa(dp108
g3
g43
sg5
I-1
sg6
g22
sa(dp109
g3
g46
sg5
I-1
sg6
g32
sa(dp110
g3
g43
sg5
I-2
sg6
g41
sa(dp111
g3
g40
sg5
I-2
sg6
g32
sa(dp112
g3
g46
sg5
I-2
sg6
S'9'
p113
sa(dp114
g3
g14
sg5
I-2
sg6
S'12'
p115
sa(dp116
g3
g4
sg5
I-3
sg6
g9
saa(lp117
(dp118
g3
g38
sg5
I-1
sg6
g7
sa(dp119
g3
g38
sg5
I-2
sg6
g7
sa(dp120
g3
g38
sg5
I-3
sg6
g7
sa(dp121
g3
S'blank_pt-gd=0'
p122
sg5
I-4
sg6
g7
sa(dp123
g3
g40
sg5
I-1
sg6
g44
sa(dp124
g3
g43
sg5
I-1
sg6
g12
sa(dp125
g3
g46
sg5
I-1
sg6
g98
sa(dp126
g3
g40
sg5
I-2
sg6
g9
sa(dp127
g3
g43
sg5
I-2
sg6
g22
sa(dp128
g3
g46
sg5
I-2
sg6
g32
sa(dp129
g3
g40
sg5
I-3
sg6
g44
sa(dp130
g3
g43
sg5
I-3
sg6
g28
sa(dp131
g3
g46
sg5
I-3
sg6
g32
sa(dp132
g3
g21
sg5
I-4
sg6
g41
sa(dp133
g3
S'blank_gd-pt'
p134
sg5
I-4
sg6
g98
sa(dp135
g3
S'blank_pt-gd=gd'
p136
sg5
I-4
sg6
g32
saa(lp137
(dp138
g3
g38
sg5
I-1
sg6
g7
sa(dp139
g3
g4
sg5
I-2
sg6
g7
sa(dp140
g3
g38
sg5
I-3
sg6
g7
sa(dp141
g3
g43
sg5
I-1
sg6
g41
sa(dp142
g3
g40
sg5
I-1
sg6
g22
sa(dp143
g3
g46
sg5
I-1
sg6
g98
sa(dp144
g3
g11
sg5
I-2
sg6
g113
sa(dp145
g3
g40
sg5
I-3
sg6
g41
sa(dp146
g3
g43
sg5
I-3
sg6
g28
sa(dp147
g3
g46
sg5
I-3
sg6
g22
sa(dp148
g3
g14
sg5
I-3
sg6
S'39'
p149
sa(dp150
g3
g4
sg5
I-4
sg6
g12
saa(lp151
(dp152
g3
g38
sg5
I-1
sg6
g7
sa(dp153
g3
g4
sg5
I-2
sg6
g7
sa(dp154
g3
g43
sg5
I-1
sg6
g41
sa(dp155
g3
g40
sg5
I-1
sg6
g44
sa(dp156
g3
g46
sg5
I-1
sg6
g12
sa(dp157
g3
g11
sg5
I-2
sg6
g41
sa(dp158
g3
g14
sg5
I-2
sg6
S'10'
p159
sa(dp160
g3
g4
sg5
I-3
sg6
g41
saa(lp161
(dp162
g3
g38
sg5
I-1
sg6
g7
sa(dp163
g3
g4
sg5
I-2
sg6
g7
sa(dp164
g3
S'blank_pt-gd=0'
p165
sg5
I-4
sg6
g7
sa(dp166
g3
g40
sg5
I-1
sg6
g9
sa(dp167
g3
g43
sg5
I-1
sg6
g44
sa(dp168
g3
g46
sg5
I-1
sg6
g28
sa(dp169
g3
g11
sg5
I-2
sg6
g41
sa(dp170
g3
g14
sg5
I-2
sg6
S'60'
p171
sa(dp172
g3
g4
sg5
I-3
sg6
g22
sa(dp173
g3
g21
sg5
I-4
sg6
g41
sa(dp174
g3
g14
sg5
I-3
sg6
S'16'
p175
sa(dp176
g3
S'blank_pt-gd=gd'
p177
sg5
I-4
sg6
g9
saa(lp178
(dp179
g3
g38
sg5
I-1
sg6
g7
sa(dp180
g3
g63
sg5
I-2
sg6
g7
sa(dp181
g3
S'blank_pt-gd=0'
p182
sg5
I-3
sg6
g7
sa(dp183
g3
g43
sg5
I-1
sg6
g9
sa(dp184
g3
g40
sg5
I-1
sg6
g98
sa(dp185
g3
g46
sg5
I-1
sg6
g113
sa(dp186
g3
g65
sg5
I-2
sg6
g44
sa(dp187
g3
g21
sg5
I-3
sg6
g41
sa(dp188
g3
S'blank_gd-pt'
p189
sg5
I-3
sg6
g9
sa(dp190
g3
S'blank_pt-gd=gd'
p191
sg5
I-3
sg6
g44
saa(lp192
(dp193
g3
g26
sg5
I-1
sg6
g7
sa(dp194
g3
g63
sg5
I-2
sg6
g7
sa(dp195
g3
g63
sg5
I-3
sg6
g7
sa(dp196
g3
g4
sg5
I-1
sg6
g98
sa(dp197
g3
g65
sg5
I-2
sg6
g32
sa(dp198
g3
g65
sg5
I-3
sg6
g32
sa(dp199
g3
g14
sg5
I-3
sg6
S'22'
p200
sa(dp201
g3
g4
sg5
I-4
sg6
g44
saa(lp202
(dp203
g3
g38
sg5
I-1
sg6
g7
sa(dp204
g3
g26
sg5
I-2
sg6
g7
sa(dp205
g3
g63
sg5
I-3
sg6
g7
sa(dp206
g3
S'blank_pt-gd=0'
p207
sg5
I-4
sg6
g7
sa(dp208
g3
g40
sg5
I-1
sg6
g9
sa(dp209
g3
g43
sg5
I-1
sg6
g28
sa(dp210
g3
g46
sg5
I-1
sg6
g98
sa(dp211
g3
g4
sg5
I-2
sg6
g41
sa(dp212
g3
g14
sg5
I-1
sg6
S'08'
p213
sa(dp214
g3
g65
sg5
I-3
sg6
g22
sa(dp215
g3
S'blank_gd-pt'
p216
sg5
I-4
sg6
g9
sa(dp217
g3
g14
sg5
I-3
sg6
S'34'
p218
sa(dp219
g3
g21
sg5
I-4
sg6
g12
sa(dp220
g3
S'blank_pt-gd=gd'
p221
sg5
I-4
sg6
g22
saa(lp222
(dp223
g3
g38
sg5
I-1
sg6
g7
sa(dp224
g3
g4
sg5
I-2
sg6
g7
sa(dp225
g3
g43
sg5
I-1
sg6
g9
sa(dp226
g3
g40
sg5
I-1
sg6
g22
sa(dp227
g3
g46
sg5
I-1
sg6
g32
sa(dp228
g3
g14
sg5
I-2
sg6
S'60'
p229
sa(dp230
g3
g4
sg5
I-3
sg6
g22
saa(lp231
(dp232
g3
g63
sg5
I-2
sg6
g7
sa(dp233
g3
g21
sg5
I-3
sg6
g7
sa(dp234
g3
S'blank_pt-gd=0'
p235
sg5
I-4
sg6
g7
sa(dp236
g3
g4
sg5
I-1
sg6
g12
sa(dp237
g3
g65
sg5
I-2
sg6
g12
sa(dp238
g3
S'blank_0-N=N'
p239
sg5
I-3
sg6
g12
sa(dp240
g3
g21
sg5
I-4
sg6
g9
sa(dp241
g3
S'blank_pt-gd=gd'
p242
sg5
I-4
sg6
g12
saa(lp243
(dp244
g3
g38
sg5
I-1
sg6
g7
sa(dp245
g3
g4
sg5
I-2
sg6
g7
sa(dp246
g3
g63
sg5
I-3
sg6
g7
sa(dp247
g3
g21
sg5
I-4
sg6
g7
sa(dp248
g3
S'blank_pt-gd=0'
p249
sg5
I-5
sg6
g7
sa(dp250
g3
g40
sg5
I-1
sg6
g9
sa(dp251
g3
g43
sg5
I-1
sg6
g9
sa(dp252
g3
g46
sg5
I-1
sg6
g12
sa(dp253
g3
g11
sg5
I-2
sg6
g41
sa(dp254
g3
g65
sg5
I-3
sg6
g9
sa(dp255
g3
S'blank_0-N=N'
p256
sg5
I-4
sg6
g9
sa(dp257
g3
g21
sg5
I-5
sg6
g41
sa(dp258
g3
S'blank_pt-gd=gd'
p259
sg5
I-5
sg6
g9
saa(lp260
(dp261
g3
g38
sg5
I-1
sg6
g7
sa(dp262
g3
g63
sg5
I-2
sg6
g7
sa(dp263
g3
g21
sg5
I-3
sg6
g7
sa(dp264
g3
g43
sg5
I-1
sg6
g41
sa(dp265
g3
g40
sg5
I-1
sg6
g9
sa(dp266
g3
g46
sg5
I-1
sg6
g44
sa(dp267
g3
g65
sg5
I-2
sg6
g12
sa(dp268
g3
S'blank_0-N=N'
p269
sg5
I-3
sg6
g12
sa(dp270
g3
S'blank_correct_col'
p271
sg5
I-4
sg6
g12
sa(dp272
g3
g21
sg5
I-4
sg6
g32
saa.