(lp0
(lp1
(dp2
S'type'
p3
S'0-N=0'
p4
sS'pos'
p5
I-1
sS'result'
p6
S'0'
p7
sa(dp8
g3
S'0-N=N'
p9
sg5
I-1
sg6
S'5'
p10
sa(dp11
g3
S'correct_col'
p12
sg5
I-2
sg6
S'2'
p13
saa(lp14
(dp15
g3
S'N-0=0'
p16
sg5
I-1
sg6
g7
sa(dp17
g3
g4
sg5
I-2
sg6
g7
sa(dp18
g3
S'blank_pt-gd=0'
p19
sg5
I-3
sg6
g7
sa(dp20
g3
S'pt-gd=?'
p21
sg5
I-2
sg6
S'X'
p22
sa(dp23
g3
S'blank_pt-gd=?'
p24
sg5
I-3
sg6
g22
sa(dp25
g3
g12
sg5
I-1
sg6
S'3'
p26
sa(dp27
g3
g9
sg5
I-2
sg6
S'8'
p28
sa(dp29
g3
S'copy'
p30
sg5
I-3
sg6
S'1'
p31
sa(dp32
g3
S'blank_gd-pt'
p33
sg5
I-3
sg6
S'7'
p34
saa(lp35
(dp36
g3
S'pt-gd=0'
p37
sg5
I-1
sg6
g7
sa(dp38
g3
g16
sg5
I-2
sg6
g7
sa(dp39
g3
g4
sg5
I-3
sg6
g7
sa(dp40
g3
S'blank_pt-gd=0'
p41
sg5
I-4
sg6
g7
sa(dp42
g3
g21
sg5
I-3
sg6
g22
sa(dp43
g3
S'blank_pt-gd=?'
p44
sg5
I-4
sg6
g22
sa(dp45
g3
S'gd-pt'
p46
sg5
I-1
sg6
g13
sa(dp47
g3
g12
sg5
I-2
sg6
S'6'
p48
sa(dp49
g3
g9
sg5
I-3
sg6
g28
sa(dp50
g3
g30
sg5
I-4
sg6
g13
sa(dp51
g3
S'blank_gd-pt'
p52
sg5
I-4
sg6
g48
saa(lp53
(dp54
g3
g37
sg5
I-1
sg6
g7
sa(dp55
g3
g12
sg5
I-2
sg6
g7
sa(dp56
g3
g37
sg5
I-3
sg6
g7
sa(dp57
g3
g21
sg5
I-3
sg6
g22
sa(dp58
g3
g46
sg5
I-1
sg6
g13
sa(dp59
g3
g46
sg5
I-3
sg6
g10
sa(dp60
g3
g12
sg5
I-4
sg6
S'4'
p61
saa(lp62
(dp63
g3
g37
sg5
I-1
sg6
g7
sa(dp64
g3
g4
sg5
I-2
sg6
g7
sa(dp65
g3
S'blank_pt-gd=0'
p66
sg5
I-3
sg6
g7
sa(dp67
g3
g21
sg5
I-2
sg6
g22
sa(dp68
g3
S'blank_pt-gd=?'
p69
sg5
I-3
sg6
g22
sa(dp70
g3
g46
sg5
I-1
sg6
g13
sa(dp71
g3
g9
sg5
I-2
sg6
g10
sa(dp72
g3
g30
sg5
I-3
sg6
g31
sa(dp73
g3
S'blank_gd-pt'
p74
sg5
I-3
sg6
g61
saa(lp75
(dp76
g3
g37
sg5
I-1
sg6
g7
sa(dp77
g3
g4
sg5
I-2
sg6
g7
sa(dp78
g3
g30
sg5
I-3
sg6
g7
sa(dp79
g3
g21
sg5
I-2
sg6
g22
sa(dp80
g3
S'blank_pt-gd=?'
p81
sg5
I-3
sg6
g22
sa(dp82
g3
g46
sg5
I-1
sg6
g31
sa(dp83
g3
g9
sg5
I-2
sg6
g61
sa(dp84
g3
S'blank_0-N=N'
p85
sg5
I-3
sg6
g61
sa(dp86
g3
S'blank_correct_col'
p87
sg5
I-4
sg6
g13
sa(dp88
g3
g30
sg5
I-4
sg6
g48
saa(lp89
(dp90
g3
g37
sg5
I-1
sg6
g7
sa(dp91
g3
g46
sg5
I-1
sg6
g26
sa(dp92
g3
S'blank_correct_col'
p93
sg5
I-2
sg6
g31
sa(dp94
g3
g30
sg5
I-2
sg6
g10
sa(dp95
g3
S'blank_correct_col'
p96
sg5
I-3
sg6
g61
sa(dp97
g3
g30
sg5
I-3
sg6
g28
saa(lp98
(dp99
g3
g16
sg5
I-1
sg6
g7
sa(dp100
g3
g4
sg5
I-2
sg6
g7
sa(dp101
g3
g4
sg5
I-3
sg6
g7
sa(dp102
g3
g21
sg5
I-2
sg6
g22
sa(dp103
g3
g21
sg5
I-3
sg6
g22
sa(dp104
g3
g12
sg5
I-1
sg6
g10
sa(dp105
g3
g9
sg5
I-2
sg6
g28
sa(dp106
g3
g9
sg5
I-3
sg6
g34
sa(dp107
g3
g12
sg5
I-4
sg6
g61
saa(lp108
(dp109
g3
g37
sg5
I-1
sg6
g7
sa(dp110
g3
g37
sg5
I-2
sg6
g7
sa(dp111
g3
g37
sg5
I-3
sg6
g7
sa(dp112
g3
S'blank_pt-gd=0'
p113
sg5
I-4
sg6
g7
sa(dp114
g3
g21
sg5
I-2
sg6
g22
sa(dp115
g3
g21
sg5
I-3
sg6
g22
sa(dp116
g3
S'blank_pt-gd=?'
p117
sg5
I-4
sg6
g22
sa(dp118
g3
g46
sg5
I-1
sg6
g48
sa(dp119
g3
g46
sg5
I-2
sg6
g48
sa(dp120
g3
g46
sg5
I-3
sg6
g10
sa(dp121
g3
g30
sg5
I-4
sg6
g31
sa(dp122
g3
S'blank_gd-pt'
p123
sg5
I-4
sg6
g10
saa(lp124
(dp125
g3
g12
sg5
I-2
sg6
g7
sa(dp126
g3
g12
sg5
I-1
sg6
g13
sa(dp127
g3
S'blank_correct_col'
p128
sg5
I-3
sg6
g13
sa(dp129
g3
g30
sg5
I-3
sg6
g61
saa(lp130
(dp131
g3
g37
sg5
I-1
sg6
g7
sa(dp132
g3
g46
sg5
I-1
sg6
g31
sa(dp133
g3
g12
sg5
I-2
sg6
g61
sa(dp134
g3
g12
sg5
I-3
sg6
g31
saa(lp135
(dp136
g3
g37
sg5
I-1
sg6
g7
sa(dp137
g3
g46
sg5
I-1
sg6
g13
sa(dp138
g3
g12
sg5
I-2
sg6
g61
saa(lp139
(dp140
g3
g37
sg5
I-1
sg6
g7
sa(dp141
g3
g12
sg5
I-2
sg6
g7
sa(dp142
g3
S'blank_pt-gd=0'
p143
sg5
I-4
sg6
g7
sa(dp144
g3
S'blank_pt-gd=?'
p145
sg5
I-4
sg6
g22
sa(dp146
g3
g46
sg5
I-1
sg6
g26
sa(dp147
g3
g12
sg5
I-3
sg6
g34
sa(dp148
g3
g30
sg5
I-4
sg6
g31
saa(lp149
(dp150
g3
g37
sg5
I-1
sg6
g7
sa(dp151
g3
g37
sg5
I-2
sg6
g7
sa(dp152
g3
g21
sg5
I-2
sg6
g22
sa(dp153
g3
g46
sg5
I-1
sg6
g10
sa(dp154
g3
g46
sg5
I-2
sg6
g61
sa(dp155
g3
g12
sg5
I-3
sg6
g13
saa(lp156
(dp157
g3
g30
sg5
I-3
sg6
g7
sa(dp158
g3
S'blank_pt-gd=?'
p159
sg5
I-3
sg6
g22
sa(dp160
g3
g12
sg5
I-1
sg6
g10
sa(dp161
g3
S'blank_correct_col'
p162
sg5
I-2
sg6
g26
sa(dp163
g3
g30
sg5
I-2
sg6
g48
sa(dp164
g3
S'blank_0-N=N'
p165
sg5
I-3
sg6
g26
sa(dp166
g3
S'blank_correct_col'
p167
sg5
I-4
sg6
g13
sa(dp168
g3
g30
sg5
I-4
sg6
g10
saa(lp169
(dp170
g3
g37
sg5
I-1
sg6
g7
sa(dp171
g3
g12
sg5
I-2
sg6
g7
sa(dp172
g3
g4
sg5
I-3
sg6
g7
sa(dp173
g3
g30
sg5
I-4
sg6
g7
sa(dp174
g3
g21
sg5
I-3
sg6
g22
sa(dp175
g3
S'blank_pt-gd=?'
p176
sg5
I-4
sg6
g22
sa(dp177
g3
g46
sg5
I-1
sg6
g61
sa(dp178
g3
g9
sg5
I-3
sg6
g31
sa(dp179
g3
S'blank_0-N=N'
p180
sg5
I-4
sg6
g31
sa(dp181
g3
S'blank_correct_col'
p182
sg5
I-5
sg6
g31
sa(dp183
g3
g30
sg5
I-5
sg6
g13
saa(lp184
(dp185
g3
g37
sg5
I-1
sg6
g7
sa(dp186
g3
g12
sg5
I-2
sg6
g7
sa(dp187
g3
g46
sg5
I-1
sg6
g26
sa(dp188
g3
g12
sg5
I-3
sg6
g61
saa(lp189
(dp190
g3
g4
sg5
I-2
sg6
g7
sa(dp191
g3
g30
sg5
I-3
sg6
g7
sa(dp192
g3
S'blank_pt-gd=0'
p193
sg5
I-4
sg6
g7
sa(dp194
g3
g21
sg5
I-2
sg6
g22
sa(dp195
g3
S'blank_pt-gd=?'
p196
sg5
I-3
sg6
g22
sa(dp197
g3
S'blank_pt-gd=?'
p198
sg5
I-4
sg6
g22
sa(dp199
g3
g12
sg5
I-1
sg6
g26
sa(dp200
g3
g9
sg5
I-2
sg6
g48
sa(dp201
g3
S'blank_0-N=N'
p202
sg5
I-3
sg6
g48
sa(dp203
g3
g30
sg5
I-4
sg6
g26
saa(lp204
(dp205
g3
g37
sg5
I-1
sg6
g7
sa(dp206
g3
g12
sg5
I-2
sg6
g7
sa(dp207
g3
g46
sg5
I-1
sg6
g26
sa(dp208
g3
g12
sg5
I-3
sg6
g61
saa(lp209
(dp210
g3
g12
sg5
I-1
sg6
g7
sa(dp211
g3
g16
sg5
I-2
sg6
g7
sa(dp212
g3
g12
sg5
I-2
sg6
S'9'
p213
sa(dp214
g3
g12
sg5
I-3
sg6
g13
saa.