(lp0
(lp1
(dp2
S'type'
p3
S'correct_col'
p4
sS'pos'
p5
I-2
sS'result'
p6
S'0'
p7
sa(dp8
g3
g4
sg5
I-1
sg6
S'2'
p9
sa(dp10
g3
S'N-N=N'
p11
sg5
I-2
sg6
S'4'
p12
sa(dp13
g3
S'incomplete'
p14
sg5
I-1
sg6
S'02'
p15
sa(dp16
g3
S'blank_correct_col'
p17
sg5
I-3
sg6
g9
sa(dp18
g3
g14
sg5
I-2
sg6
S'60'
p19
sa(dp20
g3
S'copy'
p21
sg5
I-3
sg6
S'6'
p22
saa(lp23
(dp24
g3
g4
sg5
I-1
sg6
g7
sa(dp25
g3
S'N-0=0'
p26
sg5
I-2
sg6
g7
sa(dp27
g3
g11
sg5
I-1
sg6
S'5'
p28
sa(dp29
g3
g14
sg5
I-1
sg6
S'80'
p30
sa(dp31
g3
g4
sg5
I-2
sg6
S'8'
p32
sa(dp33
g3
g4
sg5
I-3
sg6
g22
sa(dp34
g3
g14
sg5
I-2
sg6
S'68'
p35
saa(lp36
(dp37
g3
S'pt-gd=0'
p38
sg5
I-1
sg6
g7
sa(dp39
g3
S'gd-pt'
p40
sg5
I-1
sg6
S'1'
p41
sa(dp42
g3
S'pt-gd=pt'
p43
sg5
I-1
sg6
S'3'
p44
sa(dp45
g3
S'pt-gd=gd'
p46
sg5
I-1
sg6
g12
sa(dp47
g3
g4
sg5
I-2
sg6
g12
saa(lp48
(dp49
g3
g21
sg5
I-2
sg6
g7
sa(dp50
g3
S'blank_correct_col'
p51
sg5
I-3
sg6
g7
sa(dp52
g3
S'blank_pt-gd=?'
p53
sg5
I-2
sg6
S'X'
p54
sa(dp55
g3
g4
sg5
I-1
sg6
g9
sa(dp56
g3
S'blank_gd-ptZ'
p57
sg5
I-2
sg6
g44
sa(dp58
g3
S'blank_pt-gd=gdZ'
p59
sg5
I-2
sg6
g44
sa(dp60
g3
S'blank_0-N=N'
p61
sg5
I-2
sg6
g44
sa(dp62
g3
g14
sg5
I-1
sg6
S'02'
p63
sa(dp64
g3
g21
sg5
I-3
sg6
g44
sa(dp65
g3
S'blank_correct_col'
p66
sg5
I-4
sg6
g28
sa(dp67
g3
g21
sg5
I-4
sg6
g32
saa(lp68
(dp69
g3
S'pt-gd=0Z'
p70
sg5
I-1
sg6
g7
sa(dp71
g3
S'pt-gd=ptZ'
p72
sg5
I-1
sg6
g7
sa(dp73
g3
S'0-N=0'
p74
sg5
I-1
sg6
g7
sa(dp75
g3
S'gd-ptZ'
p76
sg5
I-1
sg6
g44
sa(dp77
g3
S'pt-gd=gdZ'
p78
sg5
I-1
sg6
g44
sa(dp79
g3
S'0-N=N'
p80
sg5
I-1
sg6
g44
sa(dp81
g3
g4
sg5
I-2
sg6
g44
saa(lp82
(dp83
g3
g38
sg5
I-1
sg6
g7
sa(dp84
g3
g40
sg5
I-1
sg6
g41
sa(dp85
g3
g43
sg5
I-1
sg6
g9
sa(dp86
g3
g46
sg5
I-1
sg6
g44
sa(dp87
g3
S'blank_correct_col'
p88
sg5
I-2
sg6
g44
sa(dp89
g3
g14
sg5
I-1
sg6
S'59'
p90
sa(dp91
g3
g21
sg5
I-2
sg6
g22
sa(dp92
g3
S'blank_correct_col'
p93
sg5
I-3
sg6
g9
sa(dp94
g3
g21
sg5
I-3
sg6
g28
saa(lp95
(dp96
g3
g38
sg5
I-1
sg6
g7
sa(dp97
g3
g43
sg5
I-1
sg6
g9
sa(dp98
g3
g40
sg5
I-1
sg6
g12
sa(dp99
g3
g46
sg5
I-1
sg6
g22
sa(dp100
g3
g4
sg5
I-2
sg6
g41
sa(dp101
g3
g14
sg5
I-1
sg6
S'06'
p102
sa(dp103
g3
g4
sg5
I-3
sg6
g22
sa(dp104
g3
g14
sg5
I-2
sg6
S'61'
p105
saa(lp106
(dp107
g3
g26
sg5
I-1
sg6
g7
sa(dp108
g3
g70
sg5
I-2
sg6
g7
sa(dp109
g3
g72
sg5
I-2
sg6
g7
sa(dp110
g3
g74
sg5
I-2
sg6
g7
sa(dp111
g3
S'blank_pt-gd=0'
p112
sg5
I-3
sg6
g7
sa(dp113
g3
S'pt-gd=?'
p114
sg5
I-2
sg6
g54
sa(dp115
g3
S'blank_pt-gd=?'
p116
sg5
I-3
sg6
g54
sa(dp117
g3
g4
sg5
I-1
sg6
g22
sa(dp118
g3
g76
sg5
I-2
sg6
S'7'
p119
sa(dp120
g3
g78
sg5
I-2
sg6
g119
sa(dp121
g3
g80
sg5
I-2
sg6
g119
sa(dp122
g3
g21
sg5
I-3
sg6
g41
sa(dp123
g3
S'blank_gd-pt'
p124
sg5
I-3
sg6
g22
sa(dp125
g3
S'blank_pt-gd=gd'
p126
sg5
I-3
sg6
g119
saa(lp127
(dp128
g3
g38
sg5
I-1
sg6
g7
sa(dp129
g3
g38
sg5
I-2
sg6
g7
sa(dp130
g3
g114
sg5
I-2
sg6
g54
sa(dp131
g3
g40
sg5
I-1
sg6
g9
sa(dp132
g3
g43
sg5
I-1
sg6
g22
sa(dp133
g3
g46
sg5
I-1
sg6
g32
sa(dp134
g3
g43
sg5
I-2
sg6
g41
sa(dp135
g3
g40
sg5
I-2
sg6
g32
sa(dp136
g3
g46
sg5
I-2
sg6
S'9'
p137
sa(dp138
g3
g14
sg5
I-2
sg6
S'12'
p139
sa(dp140
g3
g4
sg5
I-3
sg6
g9
saa(lp141
(dp142
g3
g38
sg5
I-1
sg6
g7
sa(dp143
g3
g38
sg5
I-2
sg6
g7
sa(dp144
g3
g38
sg5
I-3
sg6
g7
sa(dp145
g3
S'blank_pt-gd=0'
p146
sg5
I-4
sg6
g7
sa(dp147
g3
g114
sg5
I-2
sg6
g54
sa(dp148
g3
g114
sg5
I-3
sg6
g54
sa(dp149
g3
S'blank_pt-gd=?'
p150
sg5
I-4
sg6
g54
sa(dp151
g3
g40
sg5
I-1
sg6
g44
sa(dp152
g3
g43
sg5
I-1
sg6
g12
sa(dp153
g3
g46
sg5
I-1
sg6
g119
sa(dp154
g3
g40
sg5
I-2
sg6
g9
sa(dp155
g3
g43
sg5
I-2
sg6
g22
sa(dp156
g3
g46
sg5
I-2
sg6
g32
sa(dp157
g3
g40
sg5
I-3
sg6
g44
sa(dp158
g3
g43
sg5
I-3
sg6
g28
sa(dp159
g3
g46
sg5
I-3
sg6
g32
sa(dp160
g3
g21
sg5
I-4
sg6
g41
sa(dp161
g3
S'blank_gd-pt'
p162
sg5
I-4
sg6
g119
sa(dp163
g3
S'blank_pt-gd=gd'
p164
sg5
I-4
sg6
g32
saa(lp165
(dp166
g3
g38
sg5
I-1
sg6
g7
sa(dp167
g3
g4
sg5
I-2
sg6
g7
sa(dp168
g3
g38
sg5
I-3
sg6
g7
sa(dp169
g3
g114
sg5
I-3
sg6
g54
sa(dp170
g3
g43
sg5
I-1
sg6
g41
sa(dp171
g3
g40
sg5
I-1
sg6
g22
sa(dp172
g3
g46
sg5
I-1
sg6
g119
sa(dp173
g3
g11
sg5
I-2
sg6
g137
sa(dp174
g3
g40
sg5
I-3
sg6
g41
sa(dp175
g3
g43
sg5
I-3
sg6
g28
sa(dp176
g3
g46
sg5
I-3
sg6
g22
sa(dp177
g3
g14
sg5
I-3
sg6
S'39'
p178
sa(dp179
g3
g4
sg5
I-4
sg6
g12
saa(lp180
(dp181
g3
g38
sg5
I-1
sg6
g7
sa(dp182
g3
g4
sg5
I-2
sg6
g7
sa(dp183
g3
g43
sg5
I-1
sg6
g41
sa(dp184
g3
g40
sg5
I-1
sg6
g44
sa(dp185
g3
g46
sg5
I-1
sg6
g12
sa(dp186
g3
g11
sg5
I-2
sg6
g41
sa(dp187
g3
g14
sg5
I-2
sg6
S'10'
p188
sa(dp189
g3
g4
sg5
I-3
sg6
g41
saa(lp190
(dp191
g3
g38
sg5
I-1
sg6
g7
sa(dp192
g3
g4
sg5
I-2
sg6
g7
sa(dp193
g3
S'blank_pt-gd=0'
p194
sg5
I-4
sg6
g7
sa(dp195
g3
S'blank_pt-gd=?'
p196
sg5
I-4
sg6
g54
sa(dp197
g3
g40
sg5
I-1
sg6
g9
sa(dp198
g3
g43
sg5
I-1
sg6
g44
sa(dp199
g3
g46
sg5
I-1
sg6
g28
sa(dp200
g3
g11
sg5
I-2
sg6
g41
sa(dp201
g3
g14
sg5
I-2
sg6
S'60'
p202
sa(dp203
g3
g4
sg5
I-3
sg6
g22
sa(dp204
g3
g21
sg5
I-4
sg6
g41
sa(dp205
g3
g14
sg5
I-3
sg6
S'16'
p206
sa(dp207
g3
S'blank_pt-gd=gd'
p208
sg5
I-4
sg6
g9
saa(lp209
(dp210
g3
g38
sg5
I-1
sg6
g7
sa(dp211
g3
g70
sg5
I-2
sg6
g7
sa(dp212
g3
g72
sg5
I-2
sg6
g7
sa(dp213
g3
g74
sg5
I-2
sg6
g7
sa(dp214
g3
S'blank_pt-gd=0'
p215
sg5
I-3
sg6
g7
sa(dp216
g3
g114
sg5
I-2
sg6
g54
sa(dp217
g3
S'blank_pt-gd=?'
p218
sg5
I-3
sg6
g54
sa(dp219
g3
g43
sg5
I-1
sg6
g9
sa(dp220
g3
g40
sg5
I-1
sg6
g119
sa(dp221
g3
g46
sg5
I-1
sg6
g137
sa(dp222
g3
g76
sg5
I-2
sg6
g44
sa(dp223
g3
g78
sg5
I-2
sg6
g44
sa(dp224
g3
g80
sg5
I-2
sg6
g44
sa(dp225
g3
g21
sg5
I-3
sg6
g41
sa(dp226
g3
S'blank_gd-pt'
p227
sg5
I-3
sg6
g9
sa(dp228
g3
S'blank_pt-gd=gd'
p229
sg5
I-3
sg6
g44
saa(lp230
(dp231
g3
g26
sg5
I-1
sg6
g7
sa(dp232
g3
g70
sg5
I-2
sg6
g7
sa(dp233
g3
g72
sg5
I-2
sg6
g7
sa(dp234
g3
g74
sg5
I-2
sg6
g7
sa(dp235
g3
g70
sg5
I-3
sg6
g7
sa(dp236
g3
g72
sg5
I-3
sg6
g7
sa(dp237
g3
g74
sg5
I-3
sg6
g7
sa(dp238
g3
g114
sg5
I-2
sg6
g54
sa(dp239
g3
g114
sg5
I-3
sg6
g54
sa(dp240
g3
g4
sg5
I-1
sg6
g119
sa(dp241
g3
g76
sg5
I-2
sg6
g32
sa(dp242
g3
g78
sg5
I-2
sg6
g32
sa(dp243
g3
g80
sg5
I-2
sg6
g32
sa(dp244
g3
g76
sg5
I-3
sg6
g32
sa(dp245
g3
g78
sg5
I-3
sg6
g32
sa(dp246
g3
g80
sg5
I-3
sg6
g32
sa(dp247
g3
g14
sg5
I-3
sg6
S'22'
p248
sa(dp249
g3
g4
sg5
I-4
sg6
g44
saa(lp250
(dp251
g3
g38
sg5
I-1
sg6
g7
sa(dp252
g3
g26
sg5
I-2
sg6
g7
sa(dp253
g3
g70
sg5
I-3
sg6
g7
sa(dp254
g3
g72
sg5
I-3
sg6
g7
sa(dp255
g3
g74
sg5
I-3
sg6
g7
sa(dp256
g3
S'blank_pt-gd=0'
p257
sg5
I-4
sg6
g7
sa(dp258
g3
g114
sg5
I-3
sg6
g54
sa(dp259
g3
S'blank_pt-gd=?'
p260
sg5
I-4
sg6
g54
sa(dp261
g3
g40
sg5
I-1
sg6
g9
sa(dp262
g3
g43
sg5
I-1
sg6
g28
sa(dp263
g3
g46
sg5
I-1
sg6
g119
sa(dp264
g3
g4
sg5
I-2
sg6
g41
sa(dp265
g3
g14
sg5
I-1
sg6
S'08'
p266
sa(dp267
g3
g76
sg5
I-3
sg6
g22
sa(dp268
g3
g78
sg5
I-3
sg6
g22
sa(dp269
g3
g80
sg5
I-3
sg6
g22
sa(dp270
g3
S'blank_gd-pt'
p271
sg5
I-4
sg6
g9
sa(dp272
g3
g14
sg5
I-3
sg6
S'34'
p273
sa(dp274
g3
g21
sg5
I-4
sg6
g12
sa(dp275
g3
S'blank_pt-gd=gd'
p276
sg5
I-4
sg6
g22
saa(lp277
(dp278
g3
g38
sg5
I-1
sg6
g7
sa(dp279
g3
g4
sg5
I-2
sg6
g7
sa(dp280
g3
g43
sg5
I-1
sg6
g9
sa(dp281
g3
g40
sg5
I-1
sg6
g22
sa(dp282
g3
g46
sg5
I-1
sg6
g32
sa(dp283
g3
g14
sg5
I-2
sg6
S'60'
p284
sa(dp285
g3
g4
sg5
I-3
sg6
g22
saa(lp286
(dp287
g3
g70
sg5
I-2
sg6
g7
sa(dp288
g3
g72
sg5
I-2
sg6
g7
sa(dp289
g3
g74
sg5
I-2
sg6
g7
sa(dp290
g3
g21
sg5
I-3
sg6
g7
sa(dp291
g3
S'blank_pt-gd=0'
p292
sg5
I-4
sg6
g7
sa(dp293
g3
g114
sg5
I-2
sg6
g54
sa(dp294
g3
S'blank_pt-gd=?'
p295
sg5
I-3
sg6
g54
sa(dp296
g3
S'blank_pt-gd=?'
p297
sg5
I-4
sg6
g54
sa(dp298
g3
g4
sg5
I-1
sg6
g12
sa(dp299
g3
g76
sg5
I-2
sg6
g12
sa(dp300
g3
g78
sg5
I-2
sg6
g12
sa(dp301
g3
g80
sg5
I-2
sg6
g12
sa(dp302
g3
S'blank_gd-ptZ'
p303
sg5
I-3
sg6
g12
sa(dp304
g3
S'blank_pt-gd=gdZ'
p305
sg5
I-3
sg6
g12
sa(dp306
g3
S'blank_0-N=N'
p307
sg5
I-3
sg6
g12
sa(dp308
g3
g21
sg5
I-4
sg6
g9
sa(dp309
g3
S'blank_pt-gd=gd'
p310
sg5
I-4
sg6
g12
saa(lp311
(dp312
g3
g38
sg5
I-1
sg6
g7
sa(dp313
g3
g4
sg5
I-2
sg6
g7
sa(dp314
g3
g70
sg5
I-3
sg6
g7
sa(dp315
g3
g72
sg5
I-3
sg6
g7
sa(dp316
g3
g74
sg5
I-3
sg6
g7
sa(dp317
g3
g21
sg5
I-4
sg6
g7
sa(dp318
g3
S'blank_pt-gd=0'
p319
sg5
I-5
sg6
g7
sa(dp320
g3
g114
sg5
I-3
sg6
g54
sa(dp321
g3
S'blank_pt-gd=?'
p322
sg5
I-4
sg6
g54
sa(dp323
g3
S'blank_pt-gd=?'
p324
sg5
I-5
sg6
g54
sa(dp325
g3
g40
sg5
I-1
sg6
g9
sa(dp326
g3
g43
sg5
I-1
sg6
g9
sa(dp327
g3
g46
sg5
I-1
sg6
g12
sa(dp328
g3
g11
sg5
I-2
sg6
g41
sa(dp329
g3
g76
sg5
I-3
sg6
g9
sa(dp330
g3
g78
sg5
I-3
sg6
g9
sa(dp331
g3
g80
sg5
I-3
sg6
g9
sa(dp332
g3
S'blank_gd-ptZ'
p333
sg5
I-4
sg6
g9
sa(dp334
g3
S'blank_pt-gd=gdZ'
p335
sg5
I-4
sg6
g9
sa(dp336
g3
S'blank_0-N=N'
p337
sg5
I-4
sg6
g9
sa(dp338
g3
g21
sg5
I-5
sg6
g41
sa(dp339
g3
S'blank_pt-gd=gd'
p340
sg5
I-5
sg6
g9
saa(lp341
(dp342
g3
g38
sg5
I-1
sg6
g7
sa(dp343
g3
g70
sg5
I-2
sg6
g7
sa(dp344
g3
g72
sg5
I-2
sg6
g7
sa(dp345
g3
g74
sg5
I-2
sg6
g7
sa(dp346
g3
g21
sg5
I-3
sg6
g7
sa(dp347
g3
g114
sg5
I-2
sg6
g54
sa(dp348
g3
S'blank_pt-gd=?'
p349
sg5
I-3
sg6
g54
sa(dp350
g3
g43
sg5
I-1
sg6
g41
sa(dp351
g3
g40
sg5
I-1
sg6
g9
sa(dp352
g3
g46
sg5
I-1
sg6
g44
sa(dp353
g3
g76
sg5
I-2
sg6
g12
sa(dp354
g3
g78
sg5
I-2
sg6
g12
sa(dp355
g3
g80
sg5
I-2
sg6
g12
sa(dp356
g3
S'blank_gd-ptZ'
p357
sg5
I-3
sg6
g12
sa(dp358
g3
S'blank_pt-gd=gdZ'
p359
sg5
I-3
sg6
g12
sa(dp360
g3
S'blank_0-N=N'
p361
sg5
I-3
sg6
g12
sa(dp362
g3
S'blank_correct_col'
p363
sg5
I-4
sg6
g12
sa(dp364
g3
g21
sg5
I-4
sg6
g32
saa.