(lp0
(lp1
(dp2
S'type'
p3
S'correct_col'
p4
sS'pos'
p5
I-2
sS'result'
p6
S'0'
p7
sa(dp8
g3
g4
sg5
I-1
sg6
S'2'
p9
sa(dp10
g3
S'incomplete'
p11
sg5
I-1
sg6
S'02'
p12
sa(dp13
g3
S'blank_correct_col'
p14
sg5
I-3
sg6
g9
sa(dp15
g3
g11
sg5
I-2
sg6
S'60'
p16
sa(dp17
g3
S'copy'
p18
sg5
I-3
sg6
S'6'
p19
saa(lp20
(dp21
g3
g4
sg5
I-1
sg6
g7
sa(dp22
g3
S'N-0=0'
p23
sg5
I-2
sg6
g7
sa(dp24
g3
g11
sg5
I-1
sg6
S'80'
p25
sa(dp26
g3
g4
sg5
I-2
sg6
S'8'
p27
sa(dp28
g3
g4
sg5
I-3
sg6
g19
sa(dp29
g3
g11
sg5
I-2
sg6
S'68'
p30
saa(lp31
(dp32
g3
S'pt-gd=0'
p33
sg5
I-1
sg6
g7
sa(dp34
g3
S'gd-pt'
p35
sg5
I-1
sg6
S'1'
p36
sa(dp37
g3
g4
sg5
I-2
sg6
S'4'
p38
saa(lp39
(dp40
g3
g18
sg5
I-2
sg6
g7
sa(dp41
g3
S'blank_correct_col'
p42
sg5
I-3
sg6
g7
sa(dp43
g3
g4
sg5
I-1
sg6
g9
sa(dp44
g3
S'blank_0-N=N'
p45
sg5
I-2
sg6
S'3'
p46
sa(dp47
g3
g11
sg5
I-1
sg6
S'02'
p48
sa(dp49
g3
g18
sg5
I-3
sg6
g46
sa(dp50
g3
S'blank_correct_col'
p51
sg5
I-4
sg6
S'5'
p52
sa(dp53
g3
g18
sg5
I-4
sg6
g27
saa(lp54
(dp55
g3
S'0-N=0'
p56
sg5
I-1
sg6
g7
sa(dp57
g3
S'0-N=N'
p58
sg5
I-1
sg6
g46
sa(dp59
g3
g4
sg5
I-2
sg6
g46
saa(lp60
(dp61
g3
g33
sg5
I-1
sg6
g7
sa(dp62
g3
g35
sg5
I-1
sg6
g36
sa(dp63
g3
S'blank_correct_col'
p64
sg5
I-2
sg6
g46
sa(dp65
g3
g11
sg5
I-1
sg6
S'59'
p66
sa(dp67
g3
g18
sg5
I-2
sg6
g19
sa(dp68
g3
S'blank_correct_col'
p69
sg5
I-3
sg6
g9
sa(dp70
g3
g18
sg5
I-3
sg6
g52
saa(lp71
(dp72
g3
g33
sg5
I-1
sg6
g7
sa(dp73
g3
g35
sg5
I-1
sg6
g38
sa(dp74
g3
g4
sg5
I-2
sg6
g36
sa(dp75
g3
g11
sg5
I-1
sg6
S'06'
p76
sa(dp77
g3
g4
sg5
I-3
sg6
g19
sa(dp78
g3
g11
sg5
I-2
sg6
S'61'
p79
saa(lp80
(dp81
g3
g23
sg5
I-1
sg6
g7
sa(dp82
g3
g56
sg5
I-2
sg6
g7
sa(dp83
g3
S'blank_pt-gd=0'
p84
sg5
I-3
sg6
g7
sa(dp85
g3
g4
sg5
I-1
sg6
g19
sa(dp86
g3
g58
sg5
I-2
sg6
S'7'
p87
sa(dp88
g3
g18
sg5
I-3
sg6
g36
sa(dp89
g3
S'blank_gd-pt'
p90
sg5
I-3
sg6
g19
saa(lp91
(dp92
g3
g33
sg5
I-1
sg6
g7
sa(dp93
g3
g33
sg5
I-2
sg6
g7
sa(dp94
g3
g35
sg5
I-1
sg6
g9
sa(dp95
g3
g35
sg5
I-2
sg6
g27
sa(dp96
g3
g11
sg5
I-2
sg6
S'12'
p97
sa(dp98
g3
g4
sg5
I-3
sg6
g9
saa(lp99
(dp100
g3
g33
sg5
I-1
sg6
g7
sa(dp101
g3
g33
sg5
I-2
sg6
g7
sa(dp102
g3
g33
sg5
I-3
sg6
g7
sa(dp103
g3
S'blank_pt-gd=0'
p104
sg5
I-4
sg6
g7
sa(dp105
g3
g35
sg5
I-1
sg6
g46
sa(dp106
g3
g35
sg5
I-2
sg6
g9
sa(dp107
g3
g35
sg5
I-3
sg6
g46
sa(dp108
g3
g18
sg5
I-4
sg6
g36
sa(dp109
g3
S'blank_gd-pt'
p110
sg5
I-4
sg6
g87
saa(lp111
(dp112
g3
g33
sg5
I-1
sg6
g7
sa(dp113
g3
g4
sg5
I-2
sg6
g7
sa(dp114
g3
g33
sg5
I-3
sg6
g7
sa(dp115
g3
g35
sg5
I-1
sg6
g19
sa(dp116
g3
g35
sg5
I-3
sg6
g36
sa(dp117
g3
g11
sg5
I-3
sg6
S'39'
p118
sa(dp119
g3
g4
sg5
I-4
sg6
g38
saa(lp120
(dp121
g3
g33
sg5
I-1
sg6
g7
sa(dp122
g3
g4
sg5
I-2
sg6
g7
sa(dp123
g3
g35
sg5
I-1
sg6
g46
sa(dp124
g3
g11
sg5
I-2
sg6
S'10'
p125
sa(dp126
g3
g4
sg5
I-3
sg6
g36
saa(lp127
(dp128
g3
g33
sg5
I-1
sg6
g7
sa(dp129
g3
g4
sg5
I-2
sg6
g7
sa(dp130
g3
S'blank_pt-gd=0'
p131
sg5
I-4
sg6
g7
sa(dp132
g3
g35
sg5
I-1
sg6
g9
sa(dp133
g3
g11
sg5
I-2
sg6
S'60'
p134
sa(dp135
g3
g4
sg5
I-3
sg6
g19
sa(dp136
g3
g18
sg5
I-4
sg6
g36
sa(dp137
g3
g11
sg5
I-3
sg6
S'16'
p138
saa(lp139
(dp140
g3
g33
sg5
I-1
sg6
g7
sa(dp141
g3
g56
sg5
I-2
sg6
g7
sa(dp142
g3
S'blank_pt-gd=0'
p143
sg5
I-3
sg6
g7
sa(dp144
g3
g35
sg5
I-1
sg6
g87
sa(dp145
g3
g58
sg5
I-2
sg6
g46
sa(dp146
g3
g18
sg5
I-3
sg6
g36
sa(dp147
g3
S'blank_gd-pt'
p148
sg5
I-3
sg6
g9
saa(lp149
(dp150
g3
g23
sg5
I-1
sg6
g7
sa(dp151
g3
g56
sg5
I-2
sg6
g7
sa(dp152
g3
g56
sg5
I-3
sg6
g7
sa(dp153
g3
g4
sg5
I-1
sg6
g87
sa(dp154
g3
g58
sg5
I-2
sg6
g27
sa(dp155
g3
g58
sg5
I-3
sg6
g27
sa(dp156
g3
g11
sg5
I-3
sg6
S'22'
p157
sa(dp158
g3
g4
sg5
I-4
sg6
g46
saa(lp159
(dp160
g3
g33
sg5
I-1
sg6
g7
sa(dp161
g3
g23
sg5
I-2
sg6
g7
sa(dp162
g3
g56
sg5
I-3
sg6
g7
sa(dp163
g3
S'blank_pt-gd=0'
p164
sg5
I-4
sg6
g7
sa(dp165
g3
g35
sg5
I-1
sg6
g9
sa(dp166
g3
g4
sg5
I-2
sg6
g36
sa(dp167
g3
g11
sg5
I-1
sg6
S'08'
p168
sa(dp169
g3
g58
sg5
I-3
sg6
g19
sa(dp170
g3
S'blank_gd-pt'
p171
sg5
I-4
sg6
g9
sa(dp172
g3
g11
sg5
I-3
sg6
S'34'
p173
sa(dp174
g3
g18
sg5
I-4
sg6
g38
saa(lp175
(dp176
g3
g33
sg5
I-1
sg6
g7
sa(dp177
g3
g4
sg5
I-2
sg6
g7
sa(dp178
g3
g35
sg5
I-1
sg6
g19
sa(dp179
g3
g11
sg5
I-2
sg6
S'60'
p180
sa(dp181
g3
g4
sg5
I-3
sg6
g19
saa(lp182
(dp183
g3
g56
sg5
I-2
sg6
g7
sa(dp184
g3
g18
sg5
I-3
sg6
g7
sa(dp185
g3
S'blank_pt-gd=0'
p186
sg5
I-4
sg6
g7
sa(dp187
g3
g4
sg5
I-1
sg6
g38
sa(dp188
g3
g58
sg5
I-2
sg6
g38
sa(dp189
g3
S'blank_0-N=N'
p190
sg5
I-3
sg6
g38
sa(dp191
g3
g18
sg5
I-4
sg6
g9
saa(lp192
(dp193
g3
g33
sg5
I-1
sg6
g7
sa(dp194
g3
g4
sg5
I-2
sg6
g7
sa(dp195
g3
g56
sg5
I-3
sg6
g7
sa(dp196
g3
g18
sg5
I-4
sg6
g7
sa(dp197
g3
S'blank_pt-gd=0'
p198
sg5
I-5
sg6
g7
sa(dp199
g3
g35
sg5
I-1
sg6
g9
sa(dp200
g3
g58
sg5
I-3
sg6
g9
sa(dp201
g3
S'blank_0-N=N'
p202
sg5
I-4
sg6
g9
sa(dp203
g3
g18
sg5
I-5
sg6
g36
saa(lp204
(dp205
g3
g33
sg5
I-1
sg6
g7
sa(dp206
g3
g56
sg5
I-2
sg6
g7
sa(dp207
g3
g18
sg5
I-3
sg6
g7
sa(dp208
g3
g35
sg5
I-1
sg6
g9
sa(dp209
g3
g58
sg5
I-2
sg6
g38
sa(dp210
g3
S'blank_0-N=N'
p211
sg5
I-3
sg6
g38
sa(dp212
g3
S'blank_correct_col'
p213
sg5
I-4
sg6
g38
sa(dp214
g3
g18
sg5
I-4
sg6
g27
saa.