(lp0
(lp1
(dp2
S'type'
p3
S'correct_col'
p4
sS'pos'
p5
I-2
sS'result'
p6
S'0'
p7
sa(dp8
g3
g4
sg5
I-1
sg6
S'2'
p9
sa(dp10
g3
S'N-N=N'
p11
sg5
I-2
sg6
S'4'
p12
sa(dp13
g3
S'incomplete'
p14
sg5
I-1
sg6
S'02'
p15
sa(dp16
g3
S'blank_correct_col'
p17
sg5
I-3
sg6
g9
sa(dp18
g3
g14
sg5
I-2
sg6
S'60'
p19
sa(dp20
g3
S'copy'
p21
sg5
I-3
sg6
S'6'
p22
saa(lp23
(dp24
g3
g4
sg5
I-1
sg6
g7
sa(dp25
g3
S'N-0=0'
p26
sg5
I-2
sg6
g7
sa(dp27
g3
g11
sg5
I-1
sg6
S'5'
p28
sa(dp29
g3
g14
sg5
I-1
sg6
S'80'
p30
sa(dp31
g3
g4
sg5
I-2
sg6
S'8'
p32
sa(dp33
g3
g4
sg5
I-3
sg6
g22
sa(dp34
g3
g14
sg5
I-2
sg6
S'68'
p35
saa(lp36
(dp37
g3
S'pt-gd=0'
p38
sg5
I-1
sg6
g7
sa(dp39
g3
S'gd-pt'
p40
sg5
I-1
sg6
S'1'
p41
sa(dp42
g3
S'pt-gd=pt'
p43
sg5
I-1
sg6
S'3'
p44
sa(dp45
g3
S'pt-gd=gd'
p46
sg5
I-1
sg6
g12
sa(dp47
g3
g4
sg5
I-2
sg6
g12
saa(lp48
(dp49
g3
g21
sg5
I-2
sg6
g7
sa(dp50
g3
S'blank_correct_col'
p51
sg5
I-3
sg6
g7
sa(dp52
g3
S'blank_pt-gd=?'
p53
sg5
I-2
sg6
S'X'
p54
sa(dp55
g3
g4
sg5
I-1
sg6
g9
sa(dp56
g3
S'blank_0-N=N'
p57
sg5
I-2
sg6
g44
sa(dp58
g3
g14
sg5
I-1
sg6
S'02'
p59
sa(dp60
g3
g21
sg5
I-3
sg6
g44
sa(dp61
g3
S'blank_correct_col'
p62
sg5
I-4
sg6
g28
sa(dp63
g3
g21
sg5
I-4
sg6
g32
saa(lp64
(dp65
g3
S'0-N=0'
p66
sg5
I-1
sg6
g7
sa(dp67
g3
S'0-N=N'
p68
sg5
I-1
sg6
g44
sa(dp69
g3
g4
sg5
I-2
sg6
g44
saa(lp70
(dp71
g3
g38
sg5
I-1
sg6
g7
sa(dp72
g3
g40
sg5
I-1
sg6
g41
sa(dp73
g3
g43
sg5
I-1
sg6
g9
sa(dp74
g3
g46
sg5
I-1
sg6
g44
sa(dp75
g3
S'blank_correct_col'
p76
sg5
I-2
sg6
g44
sa(dp77
g3
g14
sg5
I-1
sg6
S'59'
p78
sa(dp79
g3
g21
sg5
I-2
sg6
g22
sa(dp80
g3
S'blank_correct_col'
p81
sg5
I-3
sg6
g9
sa(dp82
g3
g21
sg5
I-3
sg6
g28
saa(lp83
(dp84
g3
g38
sg5
I-1
sg6
g7
sa(dp85
g3
g43
sg5
I-1
sg6
g9
sa(dp86
g3
g40
sg5
I-1
sg6
g12
sa(dp87
g3
g46
sg5
I-1
sg6
g22
sa(dp88
g3
g4
sg5
I-2
sg6
g41
sa(dp89
g3
g14
sg5
I-1
sg6
S'06'
p90
sa(dp91
g3
g4
sg5
I-3
sg6
g22
sa(dp92
g3
g14
sg5
I-2
sg6
S'61'
p93
saa(lp94
(dp95
g3
g26
sg5
I-1
sg6
g7
sa(dp96
g3
g66
sg5
I-2
sg6
g7
sa(dp97
g3
S'blank_pt-gd=0'
p98
sg5
I-3
sg6
g7
sa(dp99
g3
S'pt-gd=?'
p100
sg5
I-2
sg6
g54
sa(dp101
g3
S'blank_pt-gd=?'
p102
sg5
I-3
sg6
g54
sa(dp103
g3
g4
sg5
I-1
sg6
g22
sa(dp104
g3
g68
sg5
I-2
sg6
S'7'
p105
sa(dp106
g3
g21
sg5
I-3
sg6
g41
sa(dp107
g3
S'blank_gd-pt'
p108
sg5
I-3
sg6
g22
sa(dp109
g3
S'blank_pt-gd=gd'
p110
sg5
I-3
sg6
g105
saa(lp111
(dp112
g3
g38
sg5
I-1
sg6
g7
sa(dp113
g3
g38
sg5
I-2
sg6
g7
sa(dp114
g3
g100
sg5
I-2
sg6
g54
sa(dp115
g3
g40
sg5
I-1
sg6
g9
sa(dp116
g3
g43
sg5
I-1
sg6
g22
sa(dp117
g3
g46
sg5
I-1
sg6
g32
sa(dp118
g3
g43
sg5
I-2
sg6
g41
sa(dp119
g3
g40
sg5
I-2
sg6
g32
sa(dp120
g3
g46
sg5
I-2
sg6
S'9'
p121
sa(dp122
g3
g14
sg5
I-2
sg6
S'12'
p123
sa(dp124
g3
g4
sg5
I-3
sg6
g9
saa(lp125
(dp126
g3
g38
sg5
I-1
sg6
g7
sa(dp127
g3
g38
sg5
I-2
sg6
g7
sa(dp128
g3
g38
sg5
I-3
sg6
g7
sa(dp129
g3
S'blank_pt-gd=0'
p130
sg5
I-4
sg6
g7
sa(dp131
g3
g100
sg5
I-2
sg6
g54
sa(dp132
g3
g100
sg5
I-3
sg6
g54
sa(dp133
g3
S'blank_pt-gd=?'
p134
sg5
I-4
sg6
g54
sa(dp135
g3
g40
sg5
I-1
sg6
g44
sa(dp136
g3
g43
sg5
I-1
sg6
g12
sa(dp137
g3
g46
sg5
I-1
sg6
g105
sa(dp138
g3
g40
sg5
I-2
sg6
g9
sa(dp139
g3
g43
sg5
I-2
sg6
g22
sa(dp140
g3
g46
sg5
I-2
sg6
g32
sa(dp141
g3
g40
sg5
I-3
sg6
g44
sa(dp142
g3
g43
sg5
I-3
sg6
g28
sa(dp143
g3
g46
sg5
I-3
sg6
g32
sa(dp144
g3
g21
sg5
I-4
sg6
g41
sa(dp145
g3
S'blank_gd-pt'
p146
sg5
I-4
sg6
g105
sa(dp147
g3
S'blank_pt-gd=gd'
p148
sg5
I-4
sg6
g32
saa(lp149
(dp150
g3
g38
sg5
I-1
sg6
g7
sa(dp151
g3
g4
sg5
I-2
sg6
g7
sa(dp152
g3
g38
sg5
I-3
sg6
g7
sa(dp153
g3
g100
sg5
I-3
sg6
g54
sa(dp154
g3
g43
sg5
I-1
sg6
g41
sa(dp155
g3
g40
sg5
I-1
sg6
g22
sa(dp156
g3
g46
sg5
I-1
sg6
g105
sa(dp157
g3
g11
sg5
I-2
sg6
g121
sa(dp158
g3
g40
sg5
I-3
sg6
g41
sa(dp159
g3
g43
sg5
I-3
sg6
g28
sa(dp160
g3
g46
sg5
I-3
sg6
g22
sa(dp161
g3
g14
sg5
I-3
sg6
S'39'
p162
sa(dp163
g3
g4
sg5
I-4
sg6
g12
saa(lp164
(dp165
g3
g38
sg5
I-1
sg6
g7
sa(dp166
g3
g4
sg5
I-2
sg6
g7
sa(dp167
g3
g43
sg5
I-1
sg6
g41
sa(dp168
g3
g40
sg5
I-1
sg6
g44
sa(dp169
g3
g46
sg5
I-1
sg6
g12
sa(dp170
g3
g11
sg5
I-2
sg6
g41
sa(dp171
g3
g14
sg5
I-2
sg6
S'10'
p172
sa(dp173
g3
g4
sg5
I-3
sg6
g41
saa(lp174
(dp175
g3
g38
sg5
I-1
sg6
g7
sa(dp176
g3
g4
sg5
I-2
sg6
g7
sa(dp177
g3
S'blank_pt-gd=0'
p178
sg5
I-4
sg6
g7
sa(dp179
g3
S'blank_pt-gd=?'
p180
sg5
I-4
sg6
g54
sa(dp181
g3
g40
sg5
I-1
sg6
g9
sa(dp182
g3
g43
sg5
I-1
sg6
g44
sa(dp183
g3
g46
sg5
I-1
sg6
g28
sa(dp184
g3
g11
sg5
I-2
sg6
g41
sa(dp185
g3
g14
sg5
I-2
sg6
S'60'
p186
sa(dp187
g3
g4
sg5
I-3
sg6
g22
sa(dp188
g3
g21
sg5
I-4
sg6
g41
sa(dp189
g3
g14
sg5
I-3
sg6
S'16'
p190
sa(dp191
g3
S'blank_pt-gd=gd'
p192
sg5
I-4
sg6
g9
saa(lp193
(dp194
g3
g38
sg5
I-1
sg6
g7
sa(dp195
g3
g66
sg5
I-2
sg6
g7
sa(dp196
g3
S'blank_pt-gd=0'
p197
sg5
I-3
sg6
g7
sa(dp198
g3
g100
sg5
I-2
sg6
g54
sa(dp199
g3
S'blank_pt-gd=?'
p200
sg5
I-3
sg6
g54
sa(dp201
g3
g43
sg5
I-1
sg6
g9
sa(dp202
g3
g40
sg5
I-1
sg6
g105
sa(dp203
g3
g46
sg5
I-1
sg6
g121
sa(dp204
g3
g68
sg5
I-2
sg6
g44
sa(dp205
g3
g21
sg5
I-3
sg6
g41
sa(dp206
g3
S'blank_gd-pt'
p207
sg5
I-3
sg6
g9
sa(dp208
g3
S'blank_pt-gd=gd'
p209
sg5
I-3
sg6
g44
saa(lp210
(dp211
g3
g26
sg5
I-1
sg6
g7
sa(dp212
g3
g66
sg5
I-2
sg6
g7
sa(dp213
g3
g66
sg5
I-3
sg6
g7
sa(dp214
g3
g100
sg5
I-2
sg6
g54
sa(dp215
g3
g100
sg5
I-3
sg6
g54
sa(dp216
g3
g4
sg5
I-1
sg6
g105
sa(dp217
g3
g68
sg5
I-2
sg6
g32
sa(dp218
g3
g68
sg5
I-3
sg6
g32
sa(dp219
g3
g14
sg5
I-3
sg6
S'22'
p220
sa(dp221
g3
g4
sg5
I-4
sg6
g44
saa(lp222
(dp223
g3
g38
sg5
I-1
sg6
g7
sa(dp224
g3
g26
sg5
I-2
sg6
g7
sa(dp225
g3
g66
sg5
I-3
sg6
g7
sa(dp226
g3
S'blank_pt-gd=0'
p227
sg5
I-4
sg6
g7
sa(dp228
g3
g100
sg5
I-3
sg6
g54
sa(dp229
g3
S'blank_pt-gd=?'
p230
sg5
I-4
sg6
g54
sa(dp231
g3
g40
sg5
I-1
sg6
g9
sa(dp232
g3
g43
sg5
I-1
sg6
g28
sa(dp233
g3
g46
sg5
I-1
sg6
g105
sa(dp234
g3
g4
sg5
I-2
sg6
g41
sa(dp235
g3
g14
sg5
I-1
sg6
S'08'
p236
sa(dp237
g3
g68
sg5
I-3
sg6
g22
sa(dp238
g3
S'blank_gd-pt'
p239
sg5
I-4
sg6
g9
sa(dp240
g3
g14
sg5
I-3
sg6
S'34'
p241
sa(dp242
g3
g21
sg5
I-4
sg6
g12
sa(dp243
g3
S'blank_pt-gd=gd'
p244
sg5
I-4
sg6
g22
saa(lp245
(dp246
g3
g38
sg5
I-1
sg6
g7
sa(dp247
g3
g4
sg5
I-2
sg6
g7
sa(dp248
g3
g43
sg5
I-1
sg6
g9
sa(dp249
g3
g40
sg5
I-1
sg6
g22
sa(dp250
g3
g46
sg5
I-1
sg6
g32
sa(dp251
g3
g14
sg5
I-2
sg6
S'60'
p252
sa(dp253
g3
g4
sg5
I-3
sg6
g22
saa(lp254
(dp255
g3
g66
sg5
I-2
sg6
g7
sa(dp256
g3
g21
sg5
I-3
sg6
g7
sa(dp257
g3
S'blank_pt-gd=0'
p258
sg5
I-4
sg6
g7
sa(dp259
g3
g100
sg5
I-2
sg6
g54
sa(dp260
g3
S'blank_pt-gd=?'
p261
sg5
I-3
sg6
g54
sa(dp262
g3
S'blank_pt-gd=?'
p263
sg5
I-4
sg6
g54
sa(dp264
g3
g4
sg5
I-1
sg6
g12
sa(dp265
g3
g68
sg5
I-2
sg6
g12
sa(dp266
g3
S'blank_0-N=N'
p267
sg5
I-3
sg6
g12
sa(dp268
g3
g21
sg5
I-4
sg6
g9
sa(dp269
g3
S'blank_pt-gd=gd'
p270
sg5
I-4
sg6
g12
saa(lp271
(dp272
g3
g38
sg5
I-1
sg6
g7
sa(dp273
g3
g4
sg5
I-2
sg6
g7
sa(dp274
g3
g66
sg5
I-3
sg6
g7
sa(dp275
g3
g21
sg5
I-4
sg6
g7
sa(dp276
g3
S'blank_pt-gd=0'
p277
sg5
I-5
sg6
g7
sa(dp278
g3
g100
sg5
I-3
sg6
g54
sa(dp279
g3
S'blank_pt-gd=?'
p280
sg5
I-4
sg6
g54
sa(dp281
g3
S'blank_pt-gd=?'
p282
sg5
I-5
sg6
g54
sa(dp283
g3
g40
sg5
I-1
sg6
g9
sa(dp284
g3
g43
sg5
I-1
sg6
g9
sa(dp285
g3
g46
sg5
I-1
sg6
g12
sa(dp286
g3
g11
sg5
I-2
sg6
g41
sa(dp287
g3
g68
sg5
I-3
sg6
g9
sa(dp288
g3
S'blank_0-N=N'
p289
sg5
I-4
sg6
g9
sa(dp290
g3
g21
sg5
I-5
sg6
g41
sa(dp291
g3
S'blank_pt-gd=gd'
p292
sg5
I-5
sg6
g9
saa(lp293
(dp294
g3
g38
sg5
I-1
sg6
g7
sa(dp295
g3
g66
sg5
I-2
sg6
g7
sa(dp296
g3
g21
sg5
I-3
sg6
g7
sa(dp297
g3
g100
sg5
I-2
sg6
g54
sa(dp298
g3
S'blank_pt-gd=?'
p299
sg5
I-3
sg6
g54
sa(dp300
g3
g43
sg5
I-1
sg6
g41
sa(dp301
g3
g40
sg5
I-1
sg6
g9
sa(dp302
g3
g46
sg5
I-1
sg6
g44
sa(dp303
g3
g68
sg5
I-2
sg6
g12
sa(dp304
g3
S'blank_0-N=N'
p305
sg5
I-3
sg6
g12
sa(dp306
g3
S'blank_correct_col'
p307
sg5
I-4
sg6
g12
sa(dp308
g3
g21
sg5
I-4
sg6
g32
saa.