(lp0
(lp1
(dp2
S'type'
p3
S'correct_col'
p4
sS'pos'
p5
I-2
sS'result'
p6
S'0'
p7
sa(dp8
g3
g4
sg5
I-1
sg6
S'2'
p9
sa(dp10
g3
S'incomplete'
p11
sg5
I-1
sg6
S'02'
p12
sa(dp13
g3
S'blank_correct_col'
p14
sg5
I-3
sg6
g9
sa(dp15
g3
g11
sg5
I-2
sg6
S'60'
p16
sa(dp17
g3
S'copy'
p18
sg5
I-3
sg6
S'6'
p19
saa(lp20
(dp21
g3
g4
sg5
I-1
sg6
g7
sa(dp22
g3
S'N-0=0'
p23
sg5
I-2
sg6
g7
sa(dp24
g3
g11
sg5
I-1
sg6
S'80'
p25
sa(dp26
g3
g4
sg5
I-2
sg6
S'8'
p27
sa(dp28
g3
g4
sg5
I-3
sg6
g19
sa(dp29
g3
g11
sg5
I-2
sg6
S'68'
p30
saa(lp31
(dp32
g3
S'pt-gd=0'
p33
sg5
I-1
sg6
g7
sa(dp34
g3
S'gd-pt'
p35
sg5
I-1
sg6
S'1'
p36
sa(dp37
g3
g4
sg5
I-2
sg6
S'4'
p38
saa(lp39
(dp40
g3
g18
sg5
I-2
sg6
g7
sa(dp41
g3
S'blank_correct_col'
p42
sg5
I-3
sg6
g7
sa(dp43
g3
S'blank_pt-gd=?'
p44
sg5
I-2
sg6
S'X'
p45
sa(dp46
g3
g4
sg5
I-1
sg6
g9
sa(dp47
g3
S'blank_0-N=N'
p48
sg5
I-2
sg6
S'3'
p49
sa(dp50
g3
g11
sg5
I-1
sg6
S'02'
p51
sa(dp52
g3
g18
sg5
I-3
sg6
g49
sa(dp53
g3
S'blank_correct_col'
p54
sg5
I-4
sg6
S'5'
p55
sa(dp56
g3
g18
sg5
I-4
sg6
g27
saa(lp57
(dp58
g3
S'0-N=0'
p59
sg5
I-1
sg6
g7
sa(dp60
g3
S'0-N=N'
p61
sg5
I-1
sg6
g49
sa(dp62
g3
g4
sg5
I-2
sg6
g49
saa(lp63
(dp64
g3
g33
sg5
I-1
sg6
g7
sa(dp65
g3
g35
sg5
I-1
sg6
g36
sa(dp66
g3
S'blank_correct_col'
p67
sg5
I-2
sg6
g49
sa(dp68
g3
g11
sg5
I-1
sg6
S'59'
p69
sa(dp70
g3
g18
sg5
I-2
sg6
g19
sa(dp71
g3
S'blank_correct_col'
p72
sg5
I-3
sg6
g9
sa(dp73
g3
g18
sg5
I-3
sg6
g55
saa(lp74
(dp75
g3
g33
sg5
I-1
sg6
g7
sa(dp76
g3
g35
sg5
I-1
sg6
g38
sa(dp77
g3
g4
sg5
I-2
sg6
g36
sa(dp78
g3
g11
sg5
I-1
sg6
S'06'
p79
sa(dp80
g3
g4
sg5
I-3
sg6
g19
sa(dp81
g3
g11
sg5
I-2
sg6
S'61'
p82
saa(lp83
(dp84
g3
g23
sg5
I-1
sg6
g7
sa(dp85
g3
g59
sg5
I-2
sg6
g7
sa(dp86
g3
S'blank_pt-gd=0'
p87
sg5
I-3
sg6
g7
sa(dp88
g3
S'pt-gd=?'
p89
sg5
I-2
sg6
g45
sa(dp90
g3
S'blank_pt-gd=?'
p91
sg5
I-3
sg6
g45
sa(dp92
g3
g4
sg5
I-1
sg6
g19
sa(dp93
g3
g61
sg5
I-2
sg6
S'7'
p94
sa(dp95
g3
g18
sg5
I-3
sg6
g36
sa(dp96
g3
S'blank_gd-pt'
p97
sg5
I-3
sg6
g19
saa(lp98
(dp99
g3
g33
sg5
I-1
sg6
g7
sa(dp100
g3
g33
sg5
I-2
sg6
g7
sa(dp101
g3
g89
sg5
I-2
sg6
g45
sa(dp102
g3
g35
sg5
I-1
sg6
g9
sa(dp103
g3
g35
sg5
I-2
sg6
g27
sa(dp104
g3
g11
sg5
I-2
sg6
S'12'
p105
sa(dp106
g3
g4
sg5
I-3
sg6
g9
saa(lp107
(dp108
g3
g33
sg5
I-1
sg6
g7
sa(dp109
g3
g33
sg5
I-2
sg6
g7
sa(dp110
g3
g33
sg5
I-3
sg6
g7
sa(dp111
g3
S'blank_pt-gd=0'
p112
sg5
I-4
sg6
g7
sa(dp113
g3
g89
sg5
I-2
sg6
g45
sa(dp114
g3
g89
sg5
I-3
sg6
g45
sa(dp115
g3
S'blank_pt-gd=?'
p116
sg5
I-4
sg6
g45
sa(dp117
g3
g35
sg5
I-1
sg6
g49
sa(dp118
g3
g35
sg5
I-2
sg6
g9
sa(dp119
g3
g35
sg5
I-3
sg6
g49
sa(dp120
g3
g18
sg5
I-4
sg6
g36
sa(dp121
g3
S'blank_gd-pt'
p122
sg5
I-4
sg6
g94
saa(lp123
(dp124
g3
g33
sg5
I-1
sg6
g7
sa(dp125
g3
g4
sg5
I-2
sg6
g7
sa(dp126
g3
g33
sg5
I-3
sg6
g7
sa(dp127
g3
g89
sg5
I-3
sg6
g45
sa(dp128
g3
g35
sg5
I-1
sg6
g19
sa(dp129
g3
g35
sg5
I-3
sg6
g36
sa(dp130
g3
g11
sg5
I-3
sg6
S'39'
p131
sa(dp132
g3
g4
sg5
I-4
sg6
g38
saa(lp133
(dp134
g3
g33
sg5
I-1
sg6
g7
sa(dp135
g3
g4
sg5
I-2
sg6
g7
sa(dp136
g3
g35
sg5
I-1
sg6
g49
sa(dp137
g3
g11
sg5
I-2
sg6
S'10'
p138
sa(dp139
g3
g4
sg5
I-3
sg6
g36
saa(lp140
(dp141
g3
g33
sg5
I-1
sg6
g7
sa(dp142
g3
g4
sg5
I-2
sg6
g7
sa(dp143
g3
S'blank_pt-gd=0'
p144
sg5
I-4
sg6
g7
sa(dp145
g3
S'blank_pt-gd=?'
p146
sg5
I-4
sg6
g45
sa(dp147
g3
g35
sg5
I-1
sg6
g9
sa(dp148
g3
g11
sg5
I-2
sg6
S'60'
p149
sa(dp150
g3
g4
sg5
I-3
sg6
g19
sa(dp151
g3
g18
sg5
I-4
sg6
g36
sa(dp152
g3
g11
sg5
I-3
sg6
S'16'
p153
saa(lp154
(dp155
g3
g33
sg5
I-1
sg6
g7
sa(dp156
g3
g59
sg5
I-2
sg6
g7
sa(dp157
g3
S'blank_pt-gd=0'
p158
sg5
I-3
sg6
g7
sa(dp159
g3
g89
sg5
I-2
sg6
g45
sa(dp160
g3
S'blank_pt-gd=?'
p161
sg5
I-3
sg6
g45
sa(dp162
g3
g35
sg5
I-1
sg6
g94
sa(dp163
g3
g61
sg5
I-2
sg6
g49
sa(dp164
g3
g18
sg5
I-3
sg6
g36
sa(dp165
g3
S'blank_gd-pt'
p166
sg5
I-3
sg6
g9
saa(lp167
(dp168
g3
g23
sg5
I-1
sg6
g7
sa(dp169
g3
g59
sg5
I-2
sg6
g7
sa(dp170
g3
g59
sg5
I-3
sg6
g7
sa(dp171
g3
g89
sg5
I-2
sg6
g45
sa(dp172
g3
g89
sg5
I-3
sg6
g45
sa(dp173
g3
g4
sg5
I-1
sg6
g94
sa(dp174
g3
g61
sg5
I-2
sg6
g27
sa(dp175
g3
g61
sg5
I-3
sg6
g27
sa(dp176
g3
g11
sg5
I-3
sg6
S'22'
p177
sa(dp178
g3
g4
sg5
I-4
sg6
g49
saa(lp179
(dp180
g3
g33
sg5
I-1
sg6
g7
sa(dp181
g3
g23
sg5
I-2
sg6
g7
sa(dp182
g3
g59
sg5
I-3
sg6
g7
sa(dp183
g3
S'blank_pt-gd=0'
p184
sg5
I-4
sg6
g7
sa(dp185
g3
g89
sg5
I-3
sg6
g45
sa(dp186
g3
S'blank_pt-gd=?'
p187
sg5
I-4
sg6
g45
sa(dp188
g3
g35
sg5
I-1
sg6
g9
sa(dp189
g3
g4
sg5
I-2
sg6
g36
sa(dp190
g3
g11
sg5
I-1
sg6
S'08'
p191
sa(dp192
g3
g61
sg5
I-3
sg6
g19
sa(dp193
g3
S'blank_gd-pt'
p194
sg5
I-4
sg6
g9
sa(dp195
g3
g11
sg5
I-3
sg6
S'34'
p196
sa(dp197
g3
g18
sg5
I-4
sg6
g38
saa(lp198
(dp199
g3
g33
sg5
I-1
sg6
g7
sa(dp200
g3
g4
sg5
I-2
sg6
g7
sa(dp201
g3
g35
sg5
I-1
sg6
g19
sa(dp202
g3
g11
sg5
I-2
sg6
S'60'
p203
sa(dp204
g3
g4
sg5
I-3
sg6
g19
saa(lp205
(dp206
g3
g59
sg5
I-2
sg6
g7
sa(dp207
g3
g18
sg5
I-3
sg6
g7
sa(dp208
g3
S'blank_pt-gd=0'
p209
sg5
I-4
sg6
g7
sa(dp210
g3
g89
sg5
I-2
sg6
g45
sa(dp211
g3
S'blank_pt-gd=?'
p212
sg5
I-3
sg6
g45
sa(dp213
g3
S'blank_pt-gd=?'
p214
sg5
I-4
sg6
g45
sa(dp215
g3
g4
sg5
I-1
sg6
g38
sa(dp216
g3
g61
sg5
I-2
sg6
g38
sa(dp217
g3
S'blank_0-N=N'
p218
sg5
I-3
sg6
g38
sa(dp219
g3
g18
sg5
I-4
sg6
g9
saa(lp220
(dp221
g3
g33
sg5
I-1
sg6
g7
sa(dp222
g3
g4
sg5
I-2
sg6
g7
sa(dp223
g3
g59
sg5
I-3
sg6
g7
sa(dp224
g3
g18
sg5
I-4
sg6
g7
sa(dp225
g3
S'blank_pt-gd=0'
p226
sg5
I-5
sg6
g7
sa(dp227
g3
g89
sg5
I-3
sg6
g45
sa(dp228
g3
S'blank_pt-gd=?'
p229
sg5
I-4
sg6
g45
sa(dp230
g3
S'blank_pt-gd=?'
p231
sg5
I-5
sg6
g45
sa(dp232
g3
g35
sg5
I-1
sg6
g9
sa(dp233
g3
g61
sg5
I-3
sg6
g9
sa(dp234
g3
S'blank_0-N=N'
p235
sg5
I-4
sg6
g9
sa(dp236
g3
g18
sg5
I-5
sg6
g36
saa(lp237
(dp238
g3
g33
sg5
I-1
sg6
g7
sa(dp239
g3
g59
sg5
I-2
sg6
g7
sa(dp240
g3
g18
sg5
I-3
sg6
g7
sa(dp241
g3
g89
sg5
I-2
sg6
g45
sa(dp242
g3
S'blank_pt-gd=?'
p243
sg5
I-3
sg6
g45
sa(dp244
g3
g35
sg5
I-1
sg6
g9
sa(dp245
g3
g61
sg5
I-2
sg6
g38
sa(dp246
g3
S'blank_0-N=N'
p247
sg5
I-3
sg6
g38
sa(dp248
g3
S'blank_correct_col'
p249
sg5
I-4
sg6
g38
sa(dp250
g3
g18
sg5
I-4
sg6
g27
saa.